
rtarget:     file format elf64-x86-64


Disassembly of section .init:

0000000000400bb0 <_init>:
  400bb0:	48 83 ec 08          	sub    $0x8,%rsp
  400bb4:	48 8b 05 3d 44 20 00 	mov    0x20443d(%rip),%rax        # 604ff8 <__gmon_start__>
  400bbb:	48 85 c0             	test   %rax,%rax
  400bbe:	74 02                	je     400bc2 <_init+0x12>
  400bc0:	ff d0                	callq  *%rax
  400bc2:	48 83 c4 08          	add    $0x8,%rsp
  400bc6:	c3                   	retq   

Disassembly of section .plt:

0000000000400bd0 <.plt>:
  400bd0:	ff 35 32 44 20 00    	pushq  0x204432(%rip)        # 605008 <_GLOBAL_OFFSET_TABLE_+0x8>
  400bd6:	ff 25 34 44 20 00    	jmpq   *0x204434(%rip)        # 605010 <_GLOBAL_OFFSET_TABLE_+0x10>
  400bdc:	0f 1f 40 00          	nopl   0x0(%rax)

0000000000400be0 <strcasecmp@plt>:
  400be0:	ff 25 32 44 20 00    	jmpq   *0x204432(%rip)        # 605018 <strcasecmp@GLIBC_2.2.5>
  400be6:	68 00 00 00 00       	pushq  $0x0
  400beb:	e9 e0 ff ff ff       	jmpq   400bd0 <.plt>

0000000000400bf0 <__errno_location@plt>:
  400bf0:	ff 25 2a 44 20 00    	jmpq   *0x20442a(%rip)        # 605020 <__errno_location@GLIBC_2.2.5>
  400bf6:	68 01 00 00 00       	pushq  $0x1
  400bfb:	e9 d0 ff ff ff       	jmpq   400bd0 <.plt>

0000000000400c00 <srandom@plt>:
  400c00:	ff 25 22 44 20 00    	jmpq   *0x204422(%rip)        # 605028 <srandom@GLIBC_2.2.5>
  400c06:	68 02 00 00 00       	pushq  $0x2
  400c0b:	e9 c0 ff ff ff       	jmpq   400bd0 <.plt>

0000000000400c10 <strncmp@plt>:
  400c10:	ff 25 1a 44 20 00    	jmpq   *0x20441a(%rip)        # 605030 <strncmp@GLIBC_2.2.5>
  400c16:	68 03 00 00 00       	pushq  $0x3
  400c1b:	e9 b0 ff ff ff       	jmpq   400bd0 <.plt>

0000000000400c20 <strcpy@plt>:
  400c20:	ff 25 12 44 20 00    	jmpq   *0x204412(%rip)        # 605038 <strcpy@GLIBC_2.2.5>
  400c26:	68 04 00 00 00       	pushq  $0x4
  400c2b:	e9 a0 ff ff ff       	jmpq   400bd0 <.plt>

0000000000400c30 <puts@plt>:
  400c30:	ff 25 0a 44 20 00    	jmpq   *0x20440a(%rip)        # 605040 <puts@GLIBC_2.2.5>
  400c36:	68 05 00 00 00       	pushq  $0x5
  400c3b:	e9 90 ff ff ff       	jmpq   400bd0 <.plt>

0000000000400c40 <write@plt>:
  400c40:	ff 25 02 44 20 00    	jmpq   *0x204402(%rip)        # 605048 <write@GLIBC_2.2.5>
  400c46:	68 06 00 00 00       	pushq  $0x6
  400c4b:	e9 80 ff ff ff       	jmpq   400bd0 <.plt>

0000000000400c50 <mmap@plt>:
  400c50:	ff 25 fa 43 20 00    	jmpq   *0x2043fa(%rip)        # 605050 <mmap@GLIBC_2.2.5>
  400c56:	68 07 00 00 00       	pushq  $0x7
  400c5b:	e9 70 ff ff ff       	jmpq   400bd0 <.plt>

0000000000400c60 <printf@plt>:
  400c60:	ff 25 f2 43 20 00    	jmpq   *0x2043f2(%rip)        # 605058 <printf@GLIBC_2.2.5>
  400c66:	68 08 00 00 00       	pushq  $0x8
  400c6b:	e9 60 ff ff ff       	jmpq   400bd0 <.plt>

0000000000400c70 <memset@plt>:
  400c70:	ff 25 ea 43 20 00    	jmpq   *0x2043ea(%rip)        # 605060 <memset@GLIBC_2.2.5>
  400c76:	68 09 00 00 00       	pushq  $0x9
  400c7b:	e9 50 ff ff ff       	jmpq   400bd0 <.plt>

0000000000400c80 <alarm@plt>:
  400c80:	ff 25 e2 43 20 00    	jmpq   *0x2043e2(%rip)        # 605068 <alarm@GLIBC_2.2.5>
  400c86:	68 0a 00 00 00       	pushq  $0xa
  400c8b:	e9 40 ff ff ff       	jmpq   400bd0 <.plt>

0000000000400c90 <close@plt>:
  400c90:	ff 25 da 43 20 00    	jmpq   *0x2043da(%rip)        # 605070 <close@GLIBC_2.2.5>
  400c96:	68 0b 00 00 00       	pushq  $0xb
  400c9b:	e9 30 ff ff ff       	jmpq   400bd0 <.plt>

0000000000400ca0 <read@plt>:
  400ca0:	ff 25 d2 43 20 00    	jmpq   *0x2043d2(%rip)        # 605078 <read@GLIBC_2.2.5>
  400ca6:	68 0c 00 00 00       	pushq  $0xc
  400cab:	e9 20 ff ff ff       	jmpq   400bd0 <.plt>

0000000000400cb0 <signal@plt>:
  400cb0:	ff 25 ca 43 20 00    	jmpq   *0x2043ca(%rip)        # 605080 <signal@GLIBC_2.2.5>
  400cb6:	68 0d 00 00 00       	pushq  $0xd
  400cbb:	e9 10 ff ff ff       	jmpq   400bd0 <.plt>

0000000000400cc0 <gethostbyname@plt>:
  400cc0:	ff 25 c2 43 20 00    	jmpq   *0x2043c2(%rip)        # 605088 <gethostbyname@GLIBC_2.2.5>
  400cc6:	68 0e 00 00 00       	pushq  $0xe
  400ccb:	e9 00 ff ff ff       	jmpq   400bd0 <.plt>

0000000000400cd0 <fprintf@plt>:
  400cd0:	ff 25 ba 43 20 00    	jmpq   *0x2043ba(%rip)        # 605090 <fprintf@GLIBC_2.2.5>
  400cd6:	68 0f 00 00 00       	pushq  $0xf
  400cdb:	e9 f0 fe ff ff       	jmpq   400bd0 <.plt>

0000000000400ce0 <strtol@plt>:
  400ce0:	ff 25 b2 43 20 00    	jmpq   *0x2043b2(%rip)        # 605098 <strtol@GLIBC_2.2.5>
  400ce6:	68 10 00 00 00       	pushq  $0x10
  400ceb:	e9 e0 fe ff ff       	jmpq   400bd0 <.plt>

0000000000400cf0 <memcpy@plt>:
  400cf0:	ff 25 aa 43 20 00    	jmpq   *0x2043aa(%rip)        # 6050a0 <memcpy@GLIBC_2.14>
  400cf6:	68 11 00 00 00       	pushq  $0x11
  400cfb:	e9 d0 fe ff ff       	jmpq   400bd0 <.plt>

0000000000400d00 <time@plt>:
  400d00:	ff 25 a2 43 20 00    	jmpq   *0x2043a2(%rip)        # 6050a8 <time@GLIBC_2.2.5>
  400d06:	68 12 00 00 00       	pushq  $0x12
  400d0b:	e9 c0 fe ff ff       	jmpq   400bd0 <.plt>

0000000000400d10 <random@plt>:
  400d10:	ff 25 9a 43 20 00    	jmpq   *0x20439a(%rip)        # 6050b0 <random@GLIBC_2.2.5>
  400d16:	68 13 00 00 00       	pushq  $0x13
  400d1b:	e9 b0 fe ff ff       	jmpq   400bd0 <.plt>

0000000000400d20 <_IO_getc@plt>:
  400d20:	ff 25 92 43 20 00    	jmpq   *0x204392(%rip)        # 6050b8 <_IO_getc@GLIBC_2.2.5>
  400d26:	68 14 00 00 00       	pushq  $0x14
  400d2b:	e9 a0 fe ff ff       	jmpq   400bd0 <.plt>

0000000000400d30 <__isoc99_sscanf@plt>:
  400d30:	ff 25 8a 43 20 00    	jmpq   *0x20438a(%rip)        # 6050c0 <__isoc99_sscanf@GLIBC_2.7>
  400d36:	68 15 00 00 00       	pushq  $0x15
  400d3b:	e9 90 fe ff ff       	jmpq   400bd0 <.plt>

0000000000400d40 <munmap@plt>:
  400d40:	ff 25 82 43 20 00    	jmpq   *0x204382(%rip)        # 6050c8 <munmap@GLIBC_2.2.5>
  400d46:	68 16 00 00 00       	pushq  $0x16
  400d4b:	e9 80 fe ff ff       	jmpq   400bd0 <.plt>

0000000000400d50 <bcopy@plt>:
  400d50:	ff 25 7a 43 20 00    	jmpq   *0x20437a(%rip)        # 6050d0 <bcopy@GLIBC_2.2.5>
  400d56:	68 17 00 00 00       	pushq  $0x17
  400d5b:	e9 70 fe ff ff       	jmpq   400bd0 <.plt>

0000000000400d60 <fopen@plt>:
  400d60:	ff 25 72 43 20 00    	jmpq   *0x204372(%rip)        # 6050d8 <fopen@GLIBC_2.2.5>
  400d66:	68 18 00 00 00       	pushq  $0x18
  400d6b:	e9 60 fe ff ff       	jmpq   400bd0 <.plt>

0000000000400d70 <getopt@plt>:
  400d70:	ff 25 6a 43 20 00    	jmpq   *0x20436a(%rip)        # 6050e0 <getopt@GLIBC_2.2.5>
  400d76:	68 19 00 00 00       	pushq  $0x19
  400d7b:	e9 50 fe ff ff       	jmpq   400bd0 <.plt>

0000000000400d80 <strtoul@plt>:
  400d80:	ff 25 62 43 20 00    	jmpq   *0x204362(%rip)        # 6050e8 <strtoul@GLIBC_2.2.5>
  400d86:	68 1a 00 00 00       	pushq  $0x1a
  400d8b:	e9 40 fe ff ff       	jmpq   400bd0 <.plt>

0000000000400d90 <gethostname@plt>:
  400d90:	ff 25 5a 43 20 00    	jmpq   *0x20435a(%rip)        # 6050f0 <gethostname@GLIBC_2.2.5>
  400d96:	68 1b 00 00 00       	pushq  $0x1b
  400d9b:	e9 30 fe ff ff       	jmpq   400bd0 <.plt>

0000000000400da0 <sprintf@plt>:
  400da0:	ff 25 52 43 20 00    	jmpq   *0x204352(%rip)        # 6050f8 <sprintf@GLIBC_2.2.5>
  400da6:	68 1c 00 00 00       	pushq  $0x1c
  400dab:	e9 20 fe ff ff       	jmpq   400bd0 <.plt>

0000000000400db0 <exit@plt>:
  400db0:	ff 25 4a 43 20 00    	jmpq   *0x20434a(%rip)        # 605100 <exit@GLIBC_2.2.5>
  400db6:	68 1d 00 00 00       	pushq  $0x1d
  400dbb:	e9 10 fe ff ff       	jmpq   400bd0 <.plt>

0000000000400dc0 <connect@plt>:
  400dc0:	ff 25 42 43 20 00    	jmpq   *0x204342(%rip)        # 605108 <connect@GLIBC_2.2.5>
  400dc6:	68 1e 00 00 00       	pushq  $0x1e
  400dcb:	e9 00 fe ff ff       	jmpq   400bd0 <.plt>

0000000000400dd0 <socket@plt>:
  400dd0:	ff 25 3a 43 20 00    	jmpq   *0x20433a(%rip)        # 605110 <socket@GLIBC_2.2.5>
  400dd6:	68 1f 00 00 00       	pushq  $0x1f
  400ddb:	e9 f0 fd ff ff       	jmpq   400bd0 <.plt>

Disassembly of section .text:

0000000000400de0 <_start>:
  400de0:	31 ed                	xor    %ebp,%ebp
  400de2:	49 89 d1             	mov    %rdx,%r9
  400de5:	5e                   	pop    %rsi
  400de6:	48 89 e2             	mov    %rsp,%rdx
  400de9:	48 83 e4 f0          	and    $0xfffffffffffffff0,%rsp
  400ded:	50                   	push   %rax
  400dee:	54                   	push   %rsp
  400def:	49 c7 c0 c0 2c 40 00 	mov    $0x402cc0,%r8
  400df6:	48 c7 c1 50 2c 40 00 	mov    $0x402c50,%rcx
  400dfd:	48 c7 c7 8d 10 40 00 	mov    $0x40108d,%rdi
  400e04:	ff 15 e6 41 20 00    	callq  *0x2041e6(%rip)        # 604ff0 <__libc_start_main@GLIBC_2.2.5>
  400e0a:	f4                   	hlt    
  400e0b:	0f 1f 44 00 00       	nopl   0x0(%rax,%rax,1)

0000000000400e10 <deregister_tm_clones>:
  400e10:	b8 97 54 60 00       	mov    $0x605497,%eax
  400e15:	55                   	push   %rbp
  400e16:	48 2d 90 54 60 00    	sub    $0x605490,%rax
  400e1c:	48 83 f8 0e          	cmp    $0xe,%rax
  400e20:	48 89 e5             	mov    %rsp,%rbp
  400e23:	76 1b                	jbe    400e40 <deregister_tm_clones+0x30>
  400e25:	b8 00 00 00 00       	mov    $0x0,%eax
  400e2a:	48 85 c0             	test   %rax,%rax
  400e2d:	74 11                	je     400e40 <deregister_tm_clones+0x30>
  400e2f:	5d                   	pop    %rbp
  400e30:	bf 90 54 60 00       	mov    $0x605490,%edi
  400e35:	ff e0                	jmpq   *%rax
  400e37:	66 0f 1f 84 00 00 00 	nopw   0x0(%rax,%rax,1)
  400e3e:	00 00 
  400e40:	5d                   	pop    %rbp
  400e41:	c3                   	retq   
  400e42:	0f 1f 40 00          	nopl   0x0(%rax)
  400e46:	66 2e 0f 1f 84 00 00 	nopw   %cs:0x0(%rax,%rax,1)
  400e4d:	00 00 00 

0000000000400e50 <register_tm_clones>:
  400e50:	be 90 54 60 00       	mov    $0x605490,%esi
  400e55:	55                   	push   %rbp
  400e56:	48 81 ee 90 54 60 00 	sub    $0x605490,%rsi
  400e5d:	48 c1 fe 03          	sar    $0x3,%rsi
  400e61:	48 89 e5             	mov    %rsp,%rbp
  400e64:	48 89 f0             	mov    %rsi,%rax
  400e67:	48 c1 e8 3f          	shr    $0x3f,%rax
  400e6b:	48 01 c6             	add    %rax,%rsi
  400e6e:	48 d1 fe             	sar    %rsi
  400e71:	74 15                	je     400e88 <register_tm_clones+0x38>
  400e73:	b8 00 00 00 00       	mov    $0x0,%eax
  400e78:	48 85 c0             	test   %rax,%rax
  400e7b:	74 0b                	je     400e88 <register_tm_clones+0x38>
  400e7d:	5d                   	pop    %rbp
  400e7e:	bf 90 54 60 00       	mov    $0x605490,%edi
  400e83:	ff e0                	jmpq   *%rax
  400e85:	0f 1f 00             	nopl   (%rax)
  400e88:	5d                   	pop    %rbp
  400e89:	c3                   	retq   
  400e8a:	66 0f 1f 44 00 00    	nopw   0x0(%rax,%rax,1)

0000000000400e90 <__do_global_dtors_aux>:
  400e90:	80 3d 31 46 20 00 00 	cmpb   $0x0,0x204631(%rip)        # 6054c8 <completed.6972>
  400e97:	75 11                	jne    400eaa <__do_global_dtors_aux+0x1a>
  400e99:	55                   	push   %rbp
  400e9a:	48 89 e5             	mov    %rsp,%rbp
  400e9d:	e8 6e ff ff ff       	callq  400e10 <deregister_tm_clones>
  400ea2:	5d                   	pop    %rbp
  400ea3:	c6 05 1e 46 20 00 01 	movb   $0x1,0x20461e(%rip)        # 6054c8 <completed.6972>
  400eaa:	f3 c3                	repz retq 
  400eac:	0f 1f 40 00          	nopl   0x0(%rax)

0000000000400eb0 <frame_dummy>:
  400eb0:	bf 18 4e 60 00       	mov    $0x604e18,%edi
  400eb5:	48 83 3f 00          	cmpq   $0x0,(%rdi)
  400eb9:	75 05                	jne    400ec0 <frame_dummy+0x10>
  400ebb:	eb 93                	jmp    400e50 <register_tm_clones>
  400ebd:	0f 1f 00             	nopl   (%rax)
  400ec0:	b8 00 00 00 00       	mov    $0x0,%eax
  400ec5:	48 85 c0             	test   %rax,%rax
  400ec8:	74 f1                	je     400ebb <frame_dummy+0xb>
  400eca:	55                   	push   %rbp
  400ecb:	48 89 e5             	mov    %rsp,%rbp
  400ece:	ff d0                	callq  *%rax
  400ed0:	5d                   	pop    %rbp
  400ed1:	e9 7a ff ff ff       	jmpq   400e50 <register_tm_clones>

0000000000400ed6 <usage>:
  400ed6:	48 83 ec 08          	sub    $0x8,%rsp
  400eda:	48 89 fe             	mov    %rdi,%rsi
  400edd:	83 3d 24 46 20 00 00 	cmpl   $0x0,0x204624(%rip)        # 605508 <is_checker>
  400ee4:	74 4b                	je     400f31 <usage+0x5b>
  400ee6:	48 8d 3d eb 1d 00 00 	lea    0x1deb(%rip),%rdi        # 402cd8 <_IO_stdin_used+0x8>
  400eed:	b8 00 00 00 00       	mov    $0x0,%eax
  400ef2:	e8 69 fd ff ff       	callq  400c60 <printf@plt>
  400ef7:	48 8d 3d 12 1e 00 00 	lea    0x1e12(%rip),%rdi        # 402d10 <_IO_stdin_used+0x40>
  400efe:	e8 2d fd ff ff       	callq  400c30 <puts@plt>
  400f03:	48 8d 3d 3e 1f 00 00 	lea    0x1f3e(%rip),%rdi        # 402e48 <_IO_stdin_used+0x178>
  400f0a:	e8 21 fd ff ff       	callq  400c30 <puts@plt>
  400f0f:	48 8d 3d 22 1e 00 00 	lea    0x1e22(%rip),%rdi        # 402d38 <_IO_stdin_used+0x68>
  400f16:	e8 15 fd ff ff       	callq  400c30 <puts@plt>
  400f1b:	48 8d 3d 40 1f 00 00 	lea    0x1f40(%rip),%rdi        # 402e62 <_IO_stdin_used+0x192>
  400f22:	e8 09 fd ff ff       	callq  400c30 <puts@plt>
  400f27:	bf 00 00 00 00       	mov    $0x0,%edi
  400f2c:	e8 7f fe ff ff       	callq  400db0 <exit@plt>
  400f31:	48 8d 3d 46 1f 00 00 	lea    0x1f46(%rip),%rdi        # 402e7e <_IO_stdin_used+0x1ae>
  400f38:	b8 00 00 00 00       	mov    $0x0,%eax
  400f3d:	e8 1e fd ff ff       	callq  400c60 <printf@plt>
  400f42:	48 8d 3d 17 1e 00 00 	lea    0x1e17(%rip),%rdi        # 402d60 <_IO_stdin_used+0x90>
  400f49:	e8 e2 fc ff ff       	callq  400c30 <puts@plt>
  400f4e:	48 8d 3d 33 1e 00 00 	lea    0x1e33(%rip),%rdi        # 402d88 <_IO_stdin_used+0xb8>
  400f55:	e8 d6 fc ff ff       	callq  400c30 <puts@plt>
  400f5a:	48 8d 3d 3b 1f 00 00 	lea    0x1f3b(%rip),%rdi        # 402e9c <_IO_stdin_used+0x1cc>
  400f61:	e8 ca fc ff ff       	callq  400c30 <puts@plt>
  400f66:	eb bf                	jmp    400f27 <usage+0x51>

0000000000400f68 <initialize_target>:
  400f68:	55                   	push   %rbp
  400f69:	53                   	push   %rbx
  400f6a:	48 81 ec 08 21 00 00 	sub    $0x2108,%rsp
  400f71:	89 f5                	mov    %esi,%ebp
  400f73:	89 3d 7f 45 20 00    	mov    %edi,0x20457f(%rip)        # 6054f8 <check_level>
  400f79:	8b 3d b1 41 20 00    	mov    0x2041b1(%rip),%edi        # 605130 <target_id>
  400f7f:	e8 a8 1c 00 00       	callq  402c2c <gencookie>
  400f84:	89 05 7a 45 20 00    	mov    %eax,0x20457a(%rip)        # 605504 <cookie>
  400f8a:	89 c7                	mov    %eax,%edi
  400f8c:	e8 9b 1c 00 00       	callq  402c2c <gencookie>
  400f91:	89 05 69 45 20 00    	mov    %eax,0x204569(%rip)        # 605500 <authkey>
  400f97:	8b 05 93 41 20 00    	mov    0x204193(%rip),%eax        # 605130 <target_id>
  400f9d:	8d 78 01             	lea    0x1(%rax),%edi
  400fa0:	e8 5b fc ff ff       	callq  400c00 <srandom@plt>
  400fa5:	e8 66 fd ff ff       	callq  400d10 <random@plt>
  400faa:	89 c7                	mov    %eax,%edi
  400fac:	e8 c3 02 00 00       	callq  401274 <scramble>
  400fb1:	89 c3                	mov    %eax,%ebx
  400fb3:	85 ed                	test   %ebp,%ebp
  400fb5:	75 3d                	jne    400ff4 <initialize_target+0x8c>
  400fb7:	b8 00 00 00 00       	mov    $0x0,%eax
  400fbc:	01 d8                	add    %ebx,%eax
  400fbe:	0f b7 c0             	movzwl %ax,%eax
  400fc1:	8d 04 c5 00 01 00 00 	lea    0x100(,%rax,8),%eax
  400fc8:	89 c0                	mov    %eax,%eax
  400fca:	48 89 05 af 44 20 00 	mov    %rax,0x2044af(%rip)        # 605480 <buf_offset>
  400fd1:	c6 05 50 51 20 00 72 	movb   $0x72,0x205150(%rip)        # 606128 <target_prefix>
  400fd8:	83 3d a9 44 20 00 00 	cmpl   $0x0,0x2044a9(%rip)        # 605488 <notify>
  400fdf:	74 09                	je     400fea <initialize_target+0x82>
  400fe1:	83 3d 20 45 20 00 00 	cmpl   $0x0,0x204520(%rip)        # 605508 <is_checker>
  400fe8:	74 22                	je     40100c <initialize_target+0xa4>
  400fea:	48 81 c4 08 21 00 00 	add    $0x2108,%rsp
  400ff1:	5b                   	pop    %rbx
  400ff2:	5d                   	pop    %rbp
  400ff3:	c3                   	retq   
  400ff4:	bf 00 00 00 00       	mov    $0x0,%edi
  400ff9:	e8 02 fd ff ff       	callq  400d00 <time@plt>
  400ffe:	89 c7                	mov    %eax,%edi
  401000:	e8 fb fb ff ff       	callq  400c00 <srandom@plt>
  401005:	e8 06 fd ff ff       	callq  400d10 <random@plt>
  40100a:	eb b0                	jmp    400fbc <initialize_target+0x54>
  40100c:	48 89 e7             	mov    %rsp,%rdi
  40100f:	be 00 01 00 00       	mov    $0x100,%esi
  401014:	e8 77 fd ff ff       	callq  400d90 <gethostname@plt>
  401019:	89 c3                	mov    %eax,%ebx
  40101b:	85 c0                	test   %eax,%eax
  40101d:	75 24                	jne    401043 <initialize_target+0xdb>
  40101f:	48 63 c3             	movslq %ebx,%rax
  401022:	48 8d 15 37 41 20 00 	lea    0x204137(%rip),%rdx        # 605160 <host_table>
  401029:	48 8b 3c c2          	mov    (%rdx,%rax,8),%rdi
  40102d:	48 85 ff             	test   %rdi,%rdi
  401030:	74 27                	je     401059 <initialize_target+0xf1>
  401032:	48 89 e6             	mov    %rsp,%rsi
  401035:	e8 a6 fb ff ff       	callq  400be0 <strcasecmp@plt>
  40103a:	85 c0                	test   %eax,%eax
  40103c:	74 1b                	je     401059 <initialize_target+0xf1>
  40103e:	83 c3 01             	add    $0x1,%ebx
  401041:	eb dc                	jmp    40101f <initialize_target+0xb7>
  401043:	48 8d 3d 6e 1d 00 00 	lea    0x1d6e(%rip),%rdi        # 402db8 <_IO_stdin_used+0xe8>
  40104a:	e8 e1 fb ff ff       	callq  400c30 <puts@plt>
  40104f:	bf 08 00 00 00       	mov    $0x8,%edi
  401054:	e8 57 fd ff ff       	callq  400db0 <exit@plt>
  401059:	48 8d bc 24 00 01 00 	lea    0x100(%rsp),%rdi
  401060:	00 
  401061:	e8 4b 19 00 00       	callq  4029b1 <init_driver>
  401066:	85 c0                	test   %eax,%eax
  401068:	79 80                	jns    400fea <initialize_target+0x82>
  40106a:	48 8d b4 24 00 01 00 	lea    0x100(%rsp),%rsi
  401071:	00 
  401072:	48 8d 3d 77 1d 00 00 	lea    0x1d77(%rip),%rdi        # 402df0 <_IO_stdin_used+0x120>
  401079:	b8 00 00 00 00       	mov    $0x0,%eax
  40107e:	e8 dd fb ff ff       	callq  400c60 <printf@plt>
  401083:	bf 08 00 00 00       	mov    $0x8,%edi
  401088:	e8 23 fd ff ff       	callq  400db0 <exit@plt>

000000000040108d <main>:
  40108d:	41 56                	push   %r14
  40108f:	41 55                	push   %r13
  401091:	41 54                	push   %r12
  401093:	55                   	push   %rbp
  401094:	53                   	push   %rbx
  401095:	41 89 fc             	mov    %edi,%r12d
  401098:	48 89 f3             	mov    %rsi,%rbx
  40109b:	48 c7 c6 57 1d 40 00 	mov    $0x401d57,%rsi
  4010a2:	bf 0b 00 00 00       	mov    $0xb,%edi
  4010a7:	e8 04 fc ff ff       	callq  400cb0 <signal@plt>
  4010ac:	48 c7 c6 03 1d 40 00 	mov    $0x401d03,%rsi
  4010b3:	bf 07 00 00 00       	mov    $0x7,%edi
  4010b8:	e8 f3 fb ff ff       	callq  400cb0 <signal@plt>
  4010bd:	48 c7 c6 ab 1d 40 00 	mov    $0x401dab,%rsi
  4010c4:	bf 04 00 00 00       	mov    $0x4,%edi
  4010c9:	e8 e2 fb ff ff       	callq  400cb0 <signal@plt>
  4010ce:	83 3d 33 44 20 00 00 	cmpl   $0x0,0x204433(%rip)        # 605508 <is_checker>
  4010d5:	75 58                	jne    40112f <main+0xa2>
  4010d7:	48 8d 2d d7 1d 00 00 	lea    0x1dd7(%rip),%rbp        # 402eb5 <_IO_stdin_used+0x1e5>
  4010de:	48 8b 05 bb 43 20 00 	mov    0x2043bb(%rip),%rax        # 6054a0 <stdin@@GLIBC_2.2.5>
  4010e5:	48 89 05 04 44 20 00 	mov    %rax,0x204404(%rip)        # 6054f0 <infile>
  4010ec:	41 bd 00 00 00 00    	mov    $0x0,%r13d
  4010f2:	41 be 00 00 00 00    	mov    $0x0,%r14d
  4010f8:	48 89 ea             	mov    %rbp,%rdx
  4010fb:	48 89 de             	mov    %rbx,%rsi
  4010fe:	44 89 e7             	mov    %r12d,%edi
  401101:	e8 6a fc ff ff       	callq  400d70 <getopt@plt>
  401106:	3c ff                	cmp    $0xff,%al
  401108:	0f 84 f8 00 00 00    	je     401206 <main+0x179>
  40110e:	0f be f0             	movsbl %al,%esi
  401111:	83 e8 61             	sub    $0x61,%eax
  401114:	3c 10                	cmp    $0x10,%al
  401116:	0f 87 d1 00 00 00    	ja     4011ed <main+0x160>
  40111c:	0f b6 c0             	movzbl %al,%eax
  40111f:	48 8d 15 da 1d 00 00 	lea    0x1dda(%rip),%rdx        # 402f00 <_IO_stdin_used+0x230>
  401126:	48 63 04 82          	movslq (%rdx,%rax,4),%rax
  40112a:	48 01 d0             	add    %rdx,%rax
  40112d:	ff e0                	jmpq   *%rax
  40112f:	48 c7 c6 ff 1d 40 00 	mov    $0x401dff,%rsi
  401136:	bf 0e 00 00 00       	mov    $0xe,%edi
  40113b:	e8 70 fb ff ff       	callq  400cb0 <signal@plt>
  401140:	bf 05 00 00 00       	mov    $0x5,%edi
  401145:	e8 36 fb ff ff       	callq  400c80 <alarm@plt>
  40114a:	48 8d 2d 69 1d 00 00 	lea    0x1d69(%rip),%rbp        # 402eba <_IO_stdin_used+0x1ea>
  401151:	eb 8b                	jmp    4010de <main+0x51>
  401153:	48 8b 3b             	mov    (%rbx),%rdi
  401156:	e8 7b fd ff ff       	callq  400ed6 <usage>
  40115b:	48 8d 35 e3 1f 00 00 	lea    0x1fe3(%rip),%rsi        # 403145 <_IO_stdin_used+0x475>
  401162:	48 8b 3d 3f 43 20 00 	mov    0x20433f(%rip),%rdi        # 6054a8 <optarg@@GLIBC_2.2.5>
  401169:	e8 f2 fb ff ff       	callq  400d60 <fopen@plt>
  40116e:	48 89 05 7b 43 20 00 	mov    %rax,0x20437b(%rip)        # 6054f0 <infile>
  401175:	48 85 c0             	test   %rax,%rax
  401178:	0f 85 7a ff ff ff    	jne    4010f8 <main+0x6b>
  40117e:	48 8b 15 23 43 20 00 	mov    0x204323(%rip),%rdx        # 6054a8 <optarg@@GLIBC_2.2.5>
  401185:	48 8d 35 36 1d 00 00 	lea    0x1d36(%rip),%rsi        # 402ec2 <_IO_stdin_used+0x1f2>
  40118c:	48 8b 3d 2d 43 20 00 	mov    0x20432d(%rip),%rdi        # 6054c0 <stderr@@GLIBC_2.2.5>
  401193:	e8 38 fb ff ff       	callq  400cd0 <fprintf@plt>
  401198:	b8 01 00 00 00       	mov    $0x1,%eax
  40119d:	e9 c9 00 00 00       	jmpq   40126b <main+0x1de>
  4011a2:	ba 10 00 00 00       	mov    $0x10,%edx
  4011a7:	be 00 00 00 00       	mov    $0x0,%esi
  4011ac:	48 8b 3d f5 42 20 00 	mov    0x2042f5(%rip),%rdi        # 6054a8 <optarg@@GLIBC_2.2.5>
  4011b3:	e8 c8 fb ff ff       	callq  400d80 <strtoul@plt>
  4011b8:	41 89 c6             	mov    %eax,%r14d
  4011bb:	e9 38 ff ff ff       	jmpq   4010f8 <main+0x6b>
  4011c0:	ba 0a 00 00 00       	mov    $0xa,%edx
  4011c5:	be 00 00 00 00       	mov    $0x0,%esi
  4011ca:	48 8b 3d d7 42 20 00 	mov    0x2042d7(%rip),%rdi        # 6054a8 <optarg@@GLIBC_2.2.5>
  4011d1:	e8 0a fb ff ff       	callq  400ce0 <strtol@plt>
  4011d6:	41 89 c5             	mov    %eax,%r13d
  4011d9:	e9 1a ff ff ff       	jmpq   4010f8 <main+0x6b>
  4011de:	c7 05 a0 42 20 00 00 	movl   $0x0,0x2042a0(%rip)        # 605488 <notify>
  4011e5:	00 00 00 
  4011e8:	e9 0b ff ff ff       	jmpq   4010f8 <main+0x6b>
  4011ed:	48 8d 3d eb 1c 00 00 	lea    0x1ceb(%rip),%rdi        # 402edf <_IO_stdin_used+0x20f>
  4011f4:	b8 00 00 00 00       	mov    $0x0,%eax
  4011f9:	e8 62 fa ff ff       	callq  400c60 <printf@plt>
  4011fe:	48 8b 3b             	mov    (%rbx),%rdi
  401201:	e8 d0 fc ff ff       	callq  400ed6 <usage>
  401206:	be 01 00 00 00       	mov    $0x1,%esi
  40120b:	44 89 ef             	mov    %r13d,%edi
  40120e:	e8 55 fd ff ff       	callq  400f68 <initialize_target>
  401213:	83 3d ee 42 20 00 00 	cmpl   $0x0,0x2042ee(%rip)        # 605508 <is_checker>
  40121a:	74 27                	je     401243 <main+0x1b6>
  40121c:	44 3b 35 dd 42 20 00 	cmp    0x2042dd(%rip),%r14d        # 605500 <authkey>
  401223:	74 1e                	je     401243 <main+0x1b6>
  401225:	44 89 f6             	mov    %r14d,%esi
  401228:	48 8d 3d e9 1b 00 00 	lea    0x1be9(%rip),%rdi        # 402e18 <_IO_stdin_used+0x148>
  40122f:	b8 00 00 00 00       	mov    $0x0,%eax
  401234:	e8 27 fa ff ff       	callq  400c60 <printf@plt>
  401239:	b8 00 00 00 00       	mov    $0x0,%eax
  40123e:	e8 90 07 00 00       	callq  4019d3 <check_fail>
  401243:	8b 35 bb 42 20 00    	mov    0x2042bb(%rip),%esi        # 605504 <cookie>
  401249:	48 8d 3d a2 1c 00 00 	lea    0x1ca2(%rip),%rdi        # 402ef2 <_IO_stdin_used+0x222>
  401250:	b8 00 00 00 00       	mov    $0x0,%eax
  401255:	e8 06 fa ff ff       	callq  400c60 <printf@plt>
  40125a:	48 8b 3d 1f 42 20 00 	mov    0x20421f(%rip),%rdi        # 605480 <buf_offset>
  401261:	e8 eb 0b 00 00       	callq  401e51 <launch>
  401266:	b8 00 00 00 00       	mov    $0x0,%eax
  40126b:	5b                   	pop    %rbx
  40126c:	5d                   	pop    %rbp
  40126d:	41 5c                	pop    %r12
  40126f:	41 5d                	pop    %r13
  401271:	41 5e                	pop    %r14
  401273:	c3                   	retq   

0000000000401274 <scramble>:
  401274:	b8 00 00 00 00       	mov    $0x0,%eax
  401279:	eb 11                	jmp    40128c <scramble+0x18>
  40127b:	69 d0 f2 98 00 00    	imul   $0x98f2,%eax,%edx
  401281:	01 fa                	add    %edi,%edx
  401283:	89 c1                	mov    %eax,%ecx
  401285:	89 54 8c d0          	mov    %edx,-0x30(%rsp,%rcx,4)
  401289:	83 c0 01             	add    $0x1,%eax
  40128c:	83 f8 09             	cmp    $0x9,%eax
  40128f:	76 ea                	jbe    40127b <scramble+0x7>
  401291:	8b 44 24 d4          	mov    -0x2c(%rsp),%eax
  401295:	69 c0 f2 1d 00 00    	imul   $0x1df2,%eax,%eax
  40129b:	89 44 24 d4          	mov    %eax,-0x2c(%rsp)
  40129f:	8b 44 24 d4          	mov    -0x2c(%rsp),%eax
  4012a3:	69 c0 6c 16 00 00    	imul   $0x166c,%eax,%eax
  4012a9:	89 44 24 d4          	mov    %eax,-0x2c(%rsp)
  4012ad:	8b 44 24 d8          	mov    -0x28(%rsp),%eax
  4012b1:	69 c0 a1 22 00 00    	imul   $0x22a1,%eax,%eax
  4012b7:	89 44 24 d8          	mov    %eax,-0x28(%rsp)
  4012bb:	8b 44 24 ec          	mov    -0x14(%rsp),%eax
  4012bf:	69 c0 57 26 00 00    	imul   $0x2657,%eax,%eax
  4012c5:	89 44 24 ec          	mov    %eax,-0x14(%rsp)
  4012c9:	8b 44 24 e4          	mov    -0x1c(%rsp),%eax
  4012cd:	69 c0 6f 34 00 00    	imul   $0x346f,%eax,%eax
  4012d3:	89 44 24 e4          	mov    %eax,-0x1c(%rsp)
  4012d7:	8b 44 24 e4          	mov    -0x1c(%rsp),%eax
  4012db:	69 c0 14 78 00 00    	imul   $0x7814,%eax,%eax
  4012e1:	89 44 24 e4          	mov    %eax,-0x1c(%rsp)
  4012e5:	8b 44 24 ec          	mov    -0x14(%rsp),%eax
  4012e9:	69 c0 1f f3 00 00    	imul   $0xf31f,%eax,%eax
  4012ef:	89 44 24 ec          	mov    %eax,-0x14(%rsp)
  4012f3:	8b 44 24 e4          	mov    -0x1c(%rsp),%eax
  4012f7:	69 c0 84 2b 00 00    	imul   $0x2b84,%eax,%eax
  4012fd:	89 44 24 e4          	mov    %eax,-0x1c(%rsp)
  401301:	8b 44 24 d8          	mov    -0x28(%rsp),%eax
  401305:	69 c0 e5 19 00 00    	imul   $0x19e5,%eax,%eax
  40130b:	89 44 24 d8          	mov    %eax,-0x28(%rsp)
  40130f:	8b 44 24 f4          	mov    -0xc(%rsp),%eax
  401313:	69 c0 75 54 00 00    	imul   $0x5475,%eax,%eax
  401319:	89 44 24 f4          	mov    %eax,-0xc(%rsp)
  40131d:	8b 44 24 d0          	mov    -0x30(%rsp),%eax
  401321:	69 c0 66 b8 00 00    	imul   $0xb866,%eax,%eax
  401327:	89 44 24 d0          	mov    %eax,-0x30(%rsp)
  40132b:	8b 44 24 e4          	mov    -0x1c(%rsp),%eax
  40132f:	69 c0 93 76 00 00    	imul   $0x7693,%eax,%eax
  401335:	89 44 24 e4          	mov    %eax,-0x1c(%rsp)
  401339:	8b 44 24 f4          	mov    -0xc(%rsp),%eax
  40133d:	69 c0 59 92 00 00    	imul   $0x9259,%eax,%eax
  401343:	89 44 24 f4          	mov    %eax,-0xc(%rsp)
  401347:	8b 44 24 e4          	mov    -0x1c(%rsp),%eax
  40134b:	69 c0 23 8f 00 00    	imul   $0x8f23,%eax,%eax
  401351:	89 44 24 e4          	mov    %eax,-0x1c(%rsp)
  401355:	8b 44 24 dc          	mov    -0x24(%rsp),%eax
  401359:	69 c0 c5 26 00 00    	imul   $0x26c5,%eax,%eax
  40135f:	89 44 24 dc          	mov    %eax,-0x24(%rsp)
  401363:	8b 44 24 d4          	mov    -0x2c(%rsp),%eax
  401367:	69 c0 f7 d4 00 00    	imul   $0xd4f7,%eax,%eax
  40136d:	89 44 24 d4          	mov    %eax,-0x2c(%rsp)
  401371:	8b 44 24 dc          	mov    -0x24(%rsp),%eax
  401375:	69 c0 76 49 00 00    	imul   $0x4976,%eax,%eax
  40137b:	89 44 24 dc          	mov    %eax,-0x24(%rsp)
  40137f:	8b 44 24 f4          	mov    -0xc(%rsp),%eax
  401383:	69 c0 5e da 00 00    	imul   $0xda5e,%eax,%eax
  401389:	89 44 24 f4          	mov    %eax,-0xc(%rsp)
  40138d:	8b 44 24 d8          	mov    -0x28(%rsp),%eax
  401391:	69 c0 6d c2 00 00    	imul   $0xc26d,%eax,%eax
  401397:	89 44 24 d8          	mov    %eax,-0x28(%rsp)
  40139b:	8b 44 24 ec          	mov    -0x14(%rsp),%eax
  40139f:	69 c0 69 83 00 00    	imul   $0x8369,%eax,%eax
  4013a5:	89 44 24 ec          	mov    %eax,-0x14(%rsp)
  4013a9:	8b 44 24 d4          	mov    -0x2c(%rsp),%eax
  4013ad:	69 c0 13 ca 00 00    	imul   $0xca13,%eax,%eax
  4013b3:	89 44 24 d4          	mov    %eax,-0x2c(%rsp)
  4013b7:	8b 44 24 f0          	mov    -0x10(%rsp),%eax
  4013bb:	69 c0 38 ce 00 00    	imul   $0xce38,%eax,%eax
  4013c1:	89 44 24 f0          	mov    %eax,-0x10(%rsp)
  4013c5:	8b 44 24 e8          	mov    -0x18(%rsp),%eax
  4013c9:	69 c0 31 78 00 00    	imul   $0x7831,%eax,%eax
  4013cf:	89 44 24 e8          	mov    %eax,-0x18(%rsp)
  4013d3:	8b 44 24 e8          	mov    -0x18(%rsp),%eax
  4013d7:	69 c0 f9 1c 00 00    	imul   $0x1cf9,%eax,%eax
  4013dd:	89 44 24 e8          	mov    %eax,-0x18(%rsp)
  4013e1:	8b 44 24 e4          	mov    -0x1c(%rsp),%eax
  4013e5:	69 c0 76 21 00 00    	imul   $0x2176,%eax,%eax
  4013eb:	89 44 24 e4          	mov    %eax,-0x1c(%rsp)
  4013ef:	8b 44 24 f4          	mov    -0xc(%rsp),%eax
  4013f3:	69 c0 9b 72 00 00    	imul   $0x729b,%eax,%eax
  4013f9:	89 44 24 f4          	mov    %eax,-0xc(%rsp)
  4013fd:	8b 44 24 d0          	mov    -0x30(%rsp),%eax
  401401:	69 c0 bb 21 00 00    	imul   $0x21bb,%eax,%eax
  401407:	89 44 24 d0          	mov    %eax,-0x30(%rsp)
  40140b:	8b 44 24 e8          	mov    -0x18(%rsp),%eax
  40140f:	69 c0 f4 6f 00 00    	imul   $0x6ff4,%eax,%eax
  401415:	89 44 24 e8          	mov    %eax,-0x18(%rsp)
  401419:	8b 44 24 f4          	mov    -0xc(%rsp),%eax
  40141d:	69 c0 da 46 00 00    	imul   $0x46da,%eax,%eax
  401423:	89 44 24 f4          	mov    %eax,-0xc(%rsp)
  401427:	8b 44 24 ec          	mov    -0x14(%rsp),%eax
  40142b:	69 c0 19 f0 00 00    	imul   $0xf019,%eax,%eax
  401431:	89 44 24 ec          	mov    %eax,-0x14(%rsp)
  401435:	8b 44 24 f0          	mov    -0x10(%rsp),%eax
  401439:	69 c0 fc c1 00 00    	imul   $0xc1fc,%eax,%eax
  40143f:	89 44 24 f0          	mov    %eax,-0x10(%rsp)
  401443:	8b 44 24 f0          	mov    -0x10(%rsp),%eax
  401447:	69 c0 57 b2 00 00    	imul   $0xb257,%eax,%eax
  40144d:	89 44 24 f0          	mov    %eax,-0x10(%rsp)
  401451:	8b 44 24 e4          	mov    -0x1c(%rsp),%eax
  401455:	69 c0 74 b0 00 00    	imul   $0xb074,%eax,%eax
  40145b:	89 44 24 e4          	mov    %eax,-0x1c(%rsp)
  40145f:	8b 44 24 dc          	mov    -0x24(%rsp),%eax
  401463:	69 c0 89 77 00 00    	imul   $0x7789,%eax,%eax
  401469:	89 44 24 dc          	mov    %eax,-0x24(%rsp)
  40146d:	8b 44 24 e8          	mov    -0x18(%rsp),%eax
  401471:	69 c0 6b 8d 00 00    	imul   $0x8d6b,%eax,%eax
  401477:	89 44 24 e8          	mov    %eax,-0x18(%rsp)
  40147b:	8b 44 24 f0          	mov    -0x10(%rsp),%eax
  40147f:	69 c0 be 69 00 00    	imul   $0x69be,%eax,%eax
  401485:	89 44 24 f0          	mov    %eax,-0x10(%rsp)
  401489:	8b 44 24 d8          	mov    -0x28(%rsp),%eax
  40148d:	69 c0 70 f6 00 00    	imul   $0xf670,%eax,%eax
  401493:	89 44 24 d8          	mov    %eax,-0x28(%rsp)
  401497:	8b 44 24 dc          	mov    -0x24(%rsp),%eax
  40149b:	69 c0 b1 14 00 00    	imul   $0x14b1,%eax,%eax
  4014a1:	89 44 24 dc          	mov    %eax,-0x24(%rsp)
  4014a5:	8b 44 24 d8          	mov    -0x28(%rsp),%eax
  4014a9:	69 c0 b3 31 00 00    	imul   $0x31b3,%eax,%eax
  4014af:	89 44 24 d8          	mov    %eax,-0x28(%rsp)
  4014b3:	8b 44 24 f4          	mov    -0xc(%rsp),%eax
  4014b7:	69 c0 b7 00 00 00    	imul   $0xb7,%eax,%eax
  4014bd:	89 44 24 f4          	mov    %eax,-0xc(%rsp)
  4014c1:	8b 44 24 e8          	mov    -0x18(%rsp),%eax
  4014c5:	69 c0 19 a3 00 00    	imul   $0xa319,%eax,%eax
  4014cb:	89 44 24 e8          	mov    %eax,-0x18(%rsp)
  4014cf:	8b 44 24 d8          	mov    -0x28(%rsp),%eax
  4014d3:	69 c0 06 2d 00 00    	imul   $0x2d06,%eax,%eax
  4014d9:	89 44 24 d8          	mov    %eax,-0x28(%rsp)
  4014dd:	8b 44 24 f0          	mov    -0x10(%rsp),%eax
  4014e1:	69 c0 81 5c 00 00    	imul   $0x5c81,%eax,%eax
  4014e7:	89 44 24 f0          	mov    %eax,-0x10(%rsp)
  4014eb:	8b 44 24 d4          	mov    -0x2c(%rsp),%eax
  4014ef:	69 c0 e8 78 00 00    	imul   $0x78e8,%eax,%eax
  4014f5:	89 44 24 d4          	mov    %eax,-0x2c(%rsp)
  4014f9:	8b 44 24 e4          	mov    -0x1c(%rsp),%eax
  4014fd:	69 c0 11 9c 00 00    	imul   $0x9c11,%eax,%eax
  401503:	89 44 24 e4          	mov    %eax,-0x1c(%rsp)
  401507:	8b 44 24 d4          	mov    -0x2c(%rsp),%eax
  40150b:	69 c0 fa 10 00 00    	imul   $0x10fa,%eax,%eax
  401511:	89 44 24 d4          	mov    %eax,-0x2c(%rsp)
  401515:	8b 44 24 f4          	mov    -0xc(%rsp),%eax
  401519:	69 c0 12 2e 00 00    	imul   $0x2e12,%eax,%eax
  40151f:	89 44 24 f4          	mov    %eax,-0xc(%rsp)
  401523:	8b 44 24 d0          	mov    -0x30(%rsp),%eax
  401527:	69 c0 7f 69 00 00    	imul   $0x697f,%eax,%eax
  40152d:	89 44 24 d0          	mov    %eax,-0x30(%rsp)
  401531:	8b 44 24 d4          	mov    -0x2c(%rsp),%eax
  401535:	69 c0 07 50 00 00    	imul   $0x5007,%eax,%eax
  40153b:	89 44 24 d4          	mov    %eax,-0x2c(%rsp)
  40153f:	8b 44 24 e0          	mov    -0x20(%rsp),%eax
  401543:	69 c0 67 51 00 00    	imul   $0x5167,%eax,%eax
  401549:	89 44 24 e0          	mov    %eax,-0x20(%rsp)
  40154d:	8b 44 24 e8          	mov    -0x18(%rsp),%eax
  401551:	69 c0 fb db 00 00    	imul   $0xdbfb,%eax,%eax
  401557:	89 44 24 e8          	mov    %eax,-0x18(%rsp)
  40155b:	8b 44 24 d4          	mov    -0x2c(%rsp),%eax
  40155f:	69 c0 f1 34 00 00    	imul   $0x34f1,%eax,%eax
  401565:	89 44 24 d4          	mov    %eax,-0x2c(%rsp)
  401569:	8b 44 24 d8          	mov    -0x28(%rsp),%eax
  40156d:	69 c0 1c f3 00 00    	imul   $0xf31c,%eax,%eax
  401573:	89 44 24 d8          	mov    %eax,-0x28(%rsp)
  401577:	8b 44 24 f4          	mov    -0xc(%rsp),%eax
  40157b:	69 c0 0c 41 00 00    	imul   $0x410c,%eax,%eax
  401581:	89 44 24 f4          	mov    %eax,-0xc(%rsp)
  401585:	8b 44 24 e4          	mov    -0x1c(%rsp),%eax
  401589:	69 c0 4c 7b 00 00    	imul   $0x7b4c,%eax,%eax
  40158f:	89 44 24 e4          	mov    %eax,-0x1c(%rsp)
  401593:	8b 44 24 e0          	mov    -0x20(%rsp),%eax
  401597:	69 c0 f9 77 00 00    	imul   $0x77f9,%eax,%eax
  40159d:	89 44 24 e0          	mov    %eax,-0x20(%rsp)
  4015a1:	8b 44 24 d4          	mov    -0x2c(%rsp),%eax
  4015a5:	69 c0 16 b5 00 00    	imul   $0xb516,%eax,%eax
  4015ab:	89 44 24 d4          	mov    %eax,-0x2c(%rsp)
  4015af:	8b 44 24 d4          	mov    -0x2c(%rsp),%eax
  4015b3:	69 c0 3a e3 00 00    	imul   $0xe33a,%eax,%eax
  4015b9:	89 44 24 d4          	mov    %eax,-0x2c(%rsp)
  4015bd:	8b 44 24 d4          	mov    -0x2c(%rsp),%eax
  4015c1:	69 c0 fa 41 00 00    	imul   $0x41fa,%eax,%eax
  4015c7:	89 44 24 d4          	mov    %eax,-0x2c(%rsp)
  4015cb:	8b 44 24 f4          	mov    -0xc(%rsp),%eax
  4015cf:	69 c0 f2 b4 00 00    	imul   $0xb4f2,%eax,%eax
  4015d5:	89 44 24 f4          	mov    %eax,-0xc(%rsp)
  4015d9:	8b 44 24 e0          	mov    -0x20(%rsp),%eax
  4015dd:	69 c0 24 c5 00 00    	imul   $0xc524,%eax,%eax
  4015e3:	89 44 24 e0          	mov    %eax,-0x20(%rsp)
  4015e7:	8b 44 24 d8          	mov    -0x28(%rsp),%eax
  4015eb:	69 c0 19 3c 00 00    	imul   $0x3c19,%eax,%eax
  4015f1:	89 44 24 d8          	mov    %eax,-0x28(%rsp)
  4015f5:	8b 44 24 e8          	mov    -0x18(%rsp),%eax
  4015f9:	69 c0 3e 89 00 00    	imul   $0x893e,%eax,%eax
  4015ff:	89 44 24 e8          	mov    %eax,-0x18(%rsp)
  401603:	8b 44 24 d4          	mov    -0x2c(%rsp),%eax
  401607:	69 c0 bc d1 00 00    	imul   $0xd1bc,%eax,%eax
  40160d:	89 44 24 d4          	mov    %eax,-0x2c(%rsp)
  401611:	8b 44 24 d0          	mov    -0x30(%rsp),%eax
  401615:	69 c0 a1 86 00 00    	imul   $0x86a1,%eax,%eax
  40161b:	89 44 24 d0          	mov    %eax,-0x30(%rsp)
  40161f:	8b 44 24 f4          	mov    -0xc(%rsp),%eax
  401623:	69 c0 b7 b6 00 00    	imul   $0xb6b7,%eax,%eax
  401629:	89 44 24 f4          	mov    %eax,-0xc(%rsp)
  40162d:	8b 44 24 d8          	mov    -0x28(%rsp),%eax
  401631:	69 c0 4a de 00 00    	imul   $0xde4a,%eax,%eax
  401637:	89 44 24 d8          	mov    %eax,-0x28(%rsp)
  40163b:	8b 44 24 e0          	mov    -0x20(%rsp),%eax
  40163f:	69 c0 08 35 00 00    	imul   $0x3508,%eax,%eax
  401645:	89 44 24 e0          	mov    %eax,-0x20(%rsp)
  401649:	8b 44 24 ec          	mov    -0x14(%rsp),%eax
  40164d:	69 c0 4a 35 00 00    	imul   $0x354a,%eax,%eax
  401653:	89 44 24 ec          	mov    %eax,-0x14(%rsp)
  401657:	8b 44 24 dc          	mov    -0x24(%rsp),%eax
  40165b:	69 c0 36 f6 00 00    	imul   $0xf636,%eax,%eax
  401661:	89 44 24 dc          	mov    %eax,-0x24(%rsp)
  401665:	8b 44 24 e4          	mov    -0x1c(%rsp),%eax
  401669:	69 c0 d8 b7 00 00    	imul   $0xb7d8,%eax,%eax
  40166f:	89 44 24 e4          	mov    %eax,-0x1c(%rsp)
  401673:	ba 00 00 00 00       	mov    $0x0,%edx
  401678:	b8 00 00 00 00       	mov    $0x0,%eax
  40167d:	eb 0b                	jmp    40168a <scramble+0x416>
  40167f:	89 d1                	mov    %edx,%ecx
  401681:	8b 4c 8c d0          	mov    -0x30(%rsp,%rcx,4),%ecx
  401685:	01 c8                	add    %ecx,%eax
  401687:	83 c2 01             	add    $0x1,%edx
  40168a:	83 fa 09             	cmp    $0x9,%edx
  40168d:	76 f0                	jbe    40167f <scramble+0x40b>
  40168f:	f3 c3                	repz retq 

0000000000401691 <getbuf>:
  401691:	48 83 ec 18          	sub    $0x18,%rsp
  401695:	48 89 e7             	mov    %rsp,%rdi
  401698:	e8 69 03 00 00       	callq  401a06 <Gets>
  40169d:	b8 01 00 00 00       	mov    $0x1,%eax
  4016a2:	48 83 c4 18          	add    $0x18,%rsp
  4016a6:	c3                   	retq   

00000000004016a7 <touch1>:
  4016a7:	48 83 ec 08          	sub    $0x8,%rsp
  4016ab:	c7 05 47 3e 20 00 01 	movl   $0x1,0x203e47(%rip)        # 6054fc <vlevel>
  4016b2:	00 00 00 
  4016b5:	48 8d 3d df 18 00 00 	lea    0x18df(%rip),%rdi        # 402f9b <_IO_stdin_used+0x2cb>
  4016bc:	e8 6f f5 ff ff       	callq  400c30 <puts@plt>
  4016c1:	bf 01 00 00 00       	mov    $0x1,%edi
  4016c6:	e8 52 05 00 00       	callq  401c1d <validate>
  4016cb:	bf 00 00 00 00       	mov    $0x0,%edi
  4016d0:	e8 db f6 ff ff       	callq  400db0 <exit@plt>

00000000004016d5 <touch2>:
  4016d5:	48 83 ec 08          	sub    $0x8,%rsp
  4016d9:	89 fe                	mov    %edi,%esi
  4016db:	c7 05 17 3e 20 00 02 	movl   $0x2,0x203e17(%rip)        # 6054fc <vlevel>
  4016e2:	00 00 00 
  4016e5:	39 3d 19 3e 20 00    	cmp    %edi,0x203e19(%rip)        # 605504 <cookie>
  4016eb:	74 25                	je     401712 <touch2+0x3d>
  4016ed:	48 8d 3d f4 18 00 00 	lea    0x18f4(%rip),%rdi        # 402fe8 <_IO_stdin_used+0x318>
  4016f4:	b8 00 00 00 00       	mov    $0x0,%eax
  4016f9:	e8 62 f5 ff ff       	callq  400c60 <printf@plt>
  4016fe:	bf 02 00 00 00       	mov    $0x2,%edi
  401703:	e8 d3 05 00 00       	callq  401cdb <fail>
  401708:	bf 00 00 00 00       	mov    $0x0,%edi
  40170d:	e8 9e f6 ff ff       	callq  400db0 <exit@plt>
  401712:	48 8d 3d a7 18 00 00 	lea    0x18a7(%rip),%rdi        # 402fc0 <_IO_stdin_used+0x2f0>
  401719:	b8 00 00 00 00       	mov    $0x0,%eax
  40171e:	e8 3d f5 ff ff       	callq  400c60 <printf@plt>
  401723:	bf 02 00 00 00       	mov    $0x2,%edi
  401728:	e8 f0 04 00 00       	callq  401c1d <validate>
  40172d:	eb d9                	jmp    401708 <touch2+0x33>

000000000040172f <hexmatch>:
  40172f:	41 54                	push   %r12
  401731:	55                   	push   %rbp
  401732:	53                   	push   %rbx
  401733:	48 83 ec 70          	sub    $0x70,%rsp
  401737:	89 fd                	mov    %edi,%ebp
  401739:	48 89 f3             	mov    %rsi,%rbx
  40173c:	e8 cf f5 ff ff       	callq  400d10 <random@plt>
  401741:	48 89 c1             	mov    %rax,%rcx
  401744:	48 ba 0b d7 a3 70 3d 	movabs $0xa3d70a3d70a3d70b,%rdx
  40174b:	0a d7 a3 
  40174e:	48 f7 ea             	imul   %rdx
  401751:	48 01 ca             	add    %rcx,%rdx
  401754:	48 c1 fa 06          	sar    $0x6,%rdx
  401758:	48 89 c8             	mov    %rcx,%rax
  40175b:	48 c1 f8 3f          	sar    $0x3f,%rax
  40175f:	48 29 c2             	sub    %rax,%rdx
  401762:	48 8d 04 92          	lea    (%rdx,%rdx,4),%rax
  401766:	48 8d 14 80          	lea    (%rax,%rax,4),%rdx
  40176a:	48 8d 04 95 00 00 00 	lea    0x0(,%rdx,4),%rax
  401771:	00 
  401772:	48 29 c1             	sub    %rax,%rcx
  401775:	4c 8d 24 0c          	lea    (%rsp,%rcx,1),%r12
  401779:	89 ea                	mov    %ebp,%edx
  40177b:	48 8d 35 36 18 00 00 	lea    0x1836(%rip),%rsi        # 402fb8 <_IO_stdin_used+0x2e8>
  401782:	4c 89 e7             	mov    %r12,%rdi
  401785:	b8 00 00 00 00       	mov    $0x0,%eax
  40178a:	e8 11 f6 ff ff       	callq  400da0 <sprintf@plt>
  40178f:	ba 09 00 00 00       	mov    $0x9,%edx
  401794:	4c 89 e6             	mov    %r12,%rsi
  401797:	48 89 df             	mov    %rbx,%rdi
  40179a:	e8 71 f4 ff ff       	callq  400c10 <strncmp@plt>
  40179f:	85 c0                	test   %eax,%eax
  4017a1:	0f 94 c0             	sete   %al
  4017a4:	0f b6 c0             	movzbl %al,%eax
  4017a7:	48 83 c4 70          	add    $0x70,%rsp
  4017ab:	5b                   	pop    %rbx
  4017ac:	5d                   	pop    %rbp
  4017ad:	41 5c                	pop    %r12
  4017af:	c3                   	retq   

00000000004017b0 <touch3>:
  4017b0:	53                   	push   %rbx
  4017b1:	48 89 fb             	mov    %rdi,%rbx
  4017b4:	c7 05 3e 3d 20 00 03 	movl   $0x3,0x203d3e(%rip)        # 6054fc <vlevel>
  4017bb:	00 00 00 
  4017be:	48 89 fe             	mov    %rdi,%rsi
  4017c1:	8b 3d 3d 3d 20 00    	mov    0x203d3d(%rip),%edi        # 605504 <cookie>
  4017c7:	e8 63 ff ff ff       	callq  40172f <hexmatch>
  4017cc:	85 c0                	test   %eax,%eax
  4017ce:	74 28                	je     4017f8 <touch3+0x48>
  4017d0:	48 89 de             	mov    %rbx,%rsi
  4017d3:	48 8d 3d 36 18 00 00 	lea    0x1836(%rip),%rdi        # 403010 <_IO_stdin_used+0x340>
  4017da:	b8 00 00 00 00       	mov    $0x0,%eax
  4017df:	e8 7c f4 ff ff       	callq  400c60 <printf@plt>
  4017e4:	bf 03 00 00 00       	mov    $0x3,%edi
  4017e9:	e8 2f 04 00 00       	callq  401c1d <validate>
  4017ee:	bf 00 00 00 00       	mov    $0x0,%edi
  4017f3:	e8 b8 f5 ff ff       	callq  400db0 <exit@plt>
  4017f8:	48 89 de             	mov    %rbx,%rsi
  4017fb:	48 8d 3d 36 18 00 00 	lea    0x1836(%rip),%rdi        # 403038 <_IO_stdin_used+0x368>
  401802:	b8 00 00 00 00       	mov    $0x0,%eax
  401807:	e8 54 f4 ff ff       	callq  400c60 <printf@plt>
  40180c:	bf 03 00 00 00       	mov    $0x3,%edi
  401811:	e8 c5 04 00 00       	callq  401cdb <fail>
  401816:	eb d6                	jmp    4017ee <touch3+0x3e>

0000000000401818 <test>:
  401818:	48 83 ec 08          	sub    $0x8,%rsp
  40181c:	b8 00 00 00 00       	mov    $0x0,%eax
  401821:	e8 6b fe ff ff       	callq  401691 <getbuf>
  401826:	89 c6                	mov    %eax,%esi
  401828:	48 8d 3d 31 18 00 00 	lea    0x1831(%rip),%rdi        # 403060 <_IO_stdin_used+0x390>
  40182f:	b8 00 00 00 00       	mov    $0x0,%eax
  401834:	e8 27 f4 ff ff       	callq  400c60 <printf@plt>
  401839:	48 83 c4 08          	add    $0x8,%rsp
  40183d:	c3                   	retq   

000000000040183e <start_farm>:
  40183e:	b8 01 00 00 00       	mov    $0x1,%eax
  401843:	c3                   	retq   

0000000000401844 <addval_210>:
  401844:	8d 87 73 d8 90 90    	lea    -0x6f6f278d(%rdi),%eax
  40184a:	c3                   	retq   

000000000040184b <getval_441>:
  40184b:	b8 48 89 c7 c7       	mov    $0xc7c78948,%eax
  401850:	c3                   	retq   

0000000000401851 <setval_269>:
  401851:	c7 07 48 89 c7 90    	movl   $0x90c78948,(%rdi)
  401857:	c3                   	retq   

0000000000401858 <addval_184>:
  401858:	8d 87 48 89 c7 92    	lea    -0x6d3876b8(%rdi),%eax
  40185e:	c3                   	retq   

000000000040185f <setval_400>:
  40185f:	c7 07 f7 4a 58 c3    	movl   $0xc3584af7,(%rdi)
  401865:	c3                   	retq   

0000000000401866 <setval_435>:
  401866:	c7 07 62 58 90 90    	movl   $0x90905862,(%rdi)
  40186c:	c3                   	retq   

000000000040186d <setval_122>:
  40186d:	c7 07 21 99 58 94    	movl   $0x94589921,(%rdi)
  401873:	c3                   	retq   

0000000000401874 <setval_442>:
  401874:	c7 07 51 48 89 c7    	movl   $0xc7894851,(%rdi)
  40187a:	c3                   	retq   

000000000040187b <mid_farm>:
  40187b:	b8 01 00 00 00       	mov    $0x1,%eax
  401880:	c3                   	retq   

0000000000401881 <add_xy>:
  401881:	48 8d 04 37          	lea    (%rdi,%rsi,1),%rax
  401885:	c3                   	retq   

0000000000401886 <getval_332>:
  401886:	b8 89 d6 90 c3       	mov    $0xc390d689,%eax
  40188b:	c3                   	retq   

000000000040188c <addval_437>:
  40188c:	8d 87 09 d6 38 c9    	lea    -0x36c729f7(%rdi),%eax
  401892:	c3                   	retq   

0000000000401893 <getval_195>:
  401893:	b8 c9 ca 84 c0       	mov    $0xc084cac9,%eax
  401898:	c3                   	retq   

0000000000401899 <addval_232>:
  401899:	8d 87 48 89 e0 90    	lea    -0x6f1f76b8(%rdi),%eax
  40189f:	c3                   	retq   

00000000004018a0 <addval_128>:
  4018a0:	8d 87 89 c1 18 c9    	lea    -0x36e73e77(%rdi),%eax
  4018a6:	c3                   	retq   

00000000004018a7 <addval_343>:
  4018a7:	8d 87 49 89 e0 90    	lea    -0x6f1f76b7(%rdi),%eax
  4018ad:	c3                   	retq   

00000000004018ae <addval_199>:
  4018ae:	8d 87 c9 c1 84 c9    	lea    -0x367b3e37(%rdi),%eax
  4018b4:	c3                   	retq   

00000000004018b5 <addval_488>:
  4018b5:	8d 87 89 ca a4 d2    	lea    -0x2d5b3577(%rdi),%eax
  4018bb:	c3                   	retq   

00000000004018bc <addval_261>:
  4018bc:	8d 87 89 c1 a4 db    	lea    -0x245b3e77(%rdi),%eax
  4018c2:	c3                   	retq   

00000000004018c3 <setval_234>:
  4018c3:	c7 07 88 c1 c3 50    	movl   $0x50c3c188,(%rdi)
  4018c9:	c3                   	retq   

00000000004018ca <addval_351>:
  4018ca:	8d 87 99 ca 84 c9    	lea    -0x367b3567(%rdi),%eax
  4018d0:	c3                   	retq   

00000000004018d1 <getval_321>:
  4018d1:	b8 89 c1 48 d2       	mov    $0xd248c189,%eax
  4018d6:	c3                   	retq   

00000000004018d7 <getval_391>:
  4018d7:	b8 48 89 e0 c1       	mov    $0xc1e08948,%eax
  4018dc:	c3                   	retq   

00000000004018dd <getval_276>:
  4018dd:	b8 89 d6 c4 d2       	mov    $0xd2c4d689,%eax
  4018e2:	c3                   	retq   

00000000004018e3 <getval_283>:
  4018e3:	b8 89 ca 84 c9       	mov    $0xc984ca89,%eax
  4018e8:	c3                   	retq   

00000000004018e9 <setval_461>:
  4018e9:	c7 07 48 89 e0 c7    	movl   $0xc7e08948,(%rdi)
  4018ef:	c3                   	retq   

00000000004018f0 <setval_155>:
  4018f0:	c7 07 d3 89 ca c3    	movl   $0xc3ca89d3,(%rdi)
  4018f6:	c3                   	retq   

00000000004018f7 <addval_149>:
  4018f7:	8d 87 2d 89 ca 94    	lea    -0x6b3576d3(%rdi),%eax
  4018fd:	c3                   	retq   

00000000004018fe <getval_364>:
  4018fe:	b8 89 d6 60 c0       	mov    $0xc060d689,%eax
  401903:	c3                   	retq   

0000000000401904 <getval_316>:
  401904:	b8 89 c1 08 db       	mov    $0xdb08c189,%eax
  401909:	c3                   	retq   

000000000040190a <addval_156>:
  40190a:	8d 87 48 89 e0 c3    	lea    -0x3c1f76b8(%rdi),%eax
  401910:	c3                   	retq   

0000000000401911 <setval_482>:
  401911:	c7 07 17 89 c1 c2    	movl   $0xc2c18917,(%rdi)
  401917:	c3                   	retq   

0000000000401918 <addval_139>:
  401918:	8d 87 a9 d6 08 db    	lea    -0x24f72957(%rdi),%eax
  40191e:	c3                   	retq   

000000000040191f <setval_342>:
  40191f:	c7 07 48 89 e0 94    	movl   $0x94e08948,(%rdi)
  401925:	c3                   	retq   

0000000000401926 <setval_349>:
  401926:	c7 07 89 d6 38 c0    	movl   $0xc038d689,(%rdi)
  40192c:	c3                   	retq   

000000000040192d <addval_223>:
  40192d:	8d 87 96 89 ca c1    	lea    -0x3e35766a(%rdi),%eax
  401933:	c3                   	retq   

0000000000401934 <setval_144>:
  401934:	c7 07 48 a9 e0 c3    	movl   $0xc3e0a948,(%rdi)
  40193a:	c3                   	retq   

000000000040193b <addval_222>:
  40193b:	8d 87 89 c1 20 db    	lea    -0x24df3e77(%rdi),%eax
  401941:	c3                   	retq   

0000000000401942 <getval_466>:
  401942:	b8 89 ca 48 c9       	mov    $0xc948ca89,%eax
  401947:	c3                   	retq   

0000000000401948 <setval_496>:
  401948:	c7 07 48 8d e0 c3    	movl   $0xc3e08d48,(%rdi)
  40194e:	c3                   	retq   

000000000040194f <setval_107>:
  40194f:	c7 07 99 d6 84 d2    	movl   $0xd284d699,(%rdi)
  401955:	c3                   	retq   

0000000000401956 <setval_251>:
  401956:	c7 07 a9 d6 20 db    	movl   $0xdb20d6a9,(%rdi)
  40195c:	c3                   	retq   

000000000040195d <end_farm>:
  40195d:	b8 01 00 00 00       	mov    $0x1,%eax
  401962:	c3                   	retq   

0000000000401963 <save_char>:
  401963:	8b 05 bb 47 20 00    	mov    0x2047bb(%rip),%eax        # 606124 <gets_cnt>
  401969:	3d ff 03 00 00       	cmp    $0x3ff,%eax
  40196e:	7f 4a                	jg     4019ba <save_char+0x57>
  401970:	8d 14 40             	lea    (%rax,%rax,2),%edx
  401973:	89 f9                	mov    %edi,%ecx
  401975:	c0 e9 04             	shr    $0x4,%cl
  401978:	4c 8d 05 01 1a 00 00 	lea    0x1a01(%rip),%r8        # 403380 <trans_char>
  40197f:	83 e1 0f             	and    $0xf,%ecx
  401982:	45 0f b6 0c 08       	movzbl (%r8,%rcx,1),%r9d
  401987:	48 8d 0d 92 3b 20 00 	lea    0x203b92(%rip),%rcx        # 605520 <gets_buf>
  40198e:	48 63 f2             	movslq %edx,%rsi
  401991:	44 88 0c 31          	mov    %r9b,(%rcx,%rsi,1)
  401995:	8d 72 01             	lea    0x1(%rdx),%esi
  401998:	83 e7 0f             	and    $0xf,%edi
  40199b:	41 0f b6 3c 38       	movzbl (%r8,%rdi,1),%edi
  4019a0:	48 63 f6             	movslq %esi,%rsi
  4019a3:	40 88 3c 31          	mov    %dil,(%rcx,%rsi,1)
  4019a7:	83 c2 02             	add    $0x2,%edx
  4019aa:	48 63 d2             	movslq %edx,%rdx
  4019ad:	c6 04 11 20          	movb   $0x20,(%rcx,%rdx,1)
  4019b1:	83 c0 01             	add    $0x1,%eax
  4019b4:	89 05 6a 47 20 00    	mov    %eax,0x20476a(%rip)        # 606124 <gets_cnt>
  4019ba:	f3 c3                	repz retq 

00000000004019bc <save_term>:
  4019bc:	8b 05 62 47 20 00    	mov    0x204762(%rip),%eax        # 606124 <gets_cnt>
  4019c2:	8d 04 40             	lea    (%rax,%rax,2),%eax
  4019c5:	48 98                	cltq   
  4019c7:	48 8d 15 52 3b 20 00 	lea    0x203b52(%rip),%rdx        # 605520 <gets_buf>
  4019ce:	c6 04 02 00          	movb   $0x0,(%rdx,%rax,1)
  4019d2:	c3                   	retq   

00000000004019d3 <check_fail>:
  4019d3:	48 83 ec 08          	sub    $0x8,%rsp
  4019d7:	0f be 35 4a 47 20 00 	movsbl 0x20474a(%rip),%esi        # 606128 <target_prefix>
  4019de:	48 8d 0d 3b 3b 20 00 	lea    0x203b3b(%rip),%rcx        # 605520 <gets_buf>
  4019e5:	8b 15 0d 3b 20 00    	mov    0x203b0d(%rip),%edx        # 6054f8 <check_level>
  4019eb:	48 8d 3d 91 16 00 00 	lea    0x1691(%rip),%rdi        # 403083 <_IO_stdin_used+0x3b3>
  4019f2:	b8 00 00 00 00       	mov    $0x0,%eax
  4019f7:	e8 64 f2 ff ff       	callq  400c60 <printf@plt>
  4019fc:	bf 01 00 00 00       	mov    $0x1,%edi
  401a01:	e8 aa f3 ff ff       	callq  400db0 <exit@plt>

0000000000401a06 <Gets>:
  401a06:	41 54                	push   %r12
  401a08:	55                   	push   %rbp
  401a09:	53                   	push   %rbx
  401a0a:	49 89 fc             	mov    %rdi,%r12
  401a0d:	c7 05 0d 47 20 00 00 	movl   $0x0,0x20470d(%rip)        # 606124 <gets_cnt>
  401a14:	00 00 00 
  401a17:	48 89 fb             	mov    %rdi,%rbx
  401a1a:	eb 11                	jmp    401a2d <Gets+0x27>
  401a1c:	48 8d 6b 01          	lea    0x1(%rbx),%rbp
  401a20:	88 03                	mov    %al,(%rbx)
  401a22:	0f b6 f8             	movzbl %al,%edi
  401a25:	e8 39 ff ff ff       	callq  401963 <save_char>
  401a2a:	48 89 eb             	mov    %rbp,%rbx
  401a2d:	48 8b 3d bc 3a 20 00 	mov    0x203abc(%rip),%rdi        # 6054f0 <infile>
  401a34:	e8 e7 f2 ff ff       	callq  400d20 <_IO_getc@plt>
  401a39:	83 f8 ff             	cmp    $0xffffffff,%eax
  401a3c:	74 05                	je     401a43 <Gets+0x3d>
  401a3e:	83 f8 0a             	cmp    $0xa,%eax
  401a41:	75 d9                	jne    401a1c <Gets+0x16>
  401a43:	c6 03 00             	movb   $0x0,(%rbx)
  401a46:	b8 00 00 00 00       	mov    $0x0,%eax
  401a4b:	e8 6c ff ff ff       	callq  4019bc <save_term>
  401a50:	4c 89 e0             	mov    %r12,%rax
  401a53:	5b                   	pop    %rbx
  401a54:	5d                   	pop    %rbp
  401a55:	41 5c                	pop    %r12
  401a57:	c3                   	retq   

0000000000401a58 <notify_server>:
  401a58:	83 3d a9 3a 20 00 00 	cmpl   $0x0,0x203aa9(%rip)        # 605508 <is_checker>
  401a5f:	0f 85 de 00 00 00    	jne    401b43 <notify_server+0xeb>
  401a65:	55                   	push   %rbp
  401a66:	53                   	push   %rbx
  401a67:	48 81 ec 08 40 00 00 	sub    $0x4008,%rsp
  401a6e:	89 fb                	mov    %edi,%ebx
  401a70:	8b 05 ae 46 20 00    	mov    0x2046ae(%rip),%eax        # 606124 <gets_cnt>
  401a76:	83 c0 64             	add    $0x64,%eax
  401a79:	3d 00 20 00 00       	cmp    $0x2000,%eax
  401a7e:	0f 8f c1 00 00 00    	jg     401b45 <notify_server+0xed>
  401a84:	44 0f be 0d 9c 46 20 	movsbl 0x20469c(%rip),%r9d        # 606128 <target_prefix>
  401a8b:	00 
  401a8c:	83 3d f5 39 20 00 00 	cmpl   $0x0,0x2039f5(%rip)        # 605488 <notify>
  401a93:	0f 84 c7 00 00 00    	je     401b60 <notify_server+0x108>
  401a99:	44 8b 05 60 3a 20 00 	mov    0x203a60(%rip),%r8d        # 605500 <authkey>
  401aa0:	85 db                	test   %ebx,%ebx
  401aa2:	0f 84 c3 00 00 00    	je     401b6b <notify_server+0x113>
  401aa8:	48 8d 2d ea 15 00 00 	lea    0x15ea(%rip),%rbp        # 403099 <_IO_stdin_used+0x3c9>
  401aaf:	48 8d bc 24 00 20 00 	lea    0x2000(%rsp),%rdi
  401ab6:	00 
  401ab7:	48 8d 05 62 3a 20 00 	lea    0x203a62(%rip),%rax        # 605520 <gets_buf>
  401abe:	50                   	push   %rax
  401abf:	56                   	push   %rsi
  401ac0:	48 89 e9             	mov    %rbp,%rcx
  401ac3:	8b 15 67 36 20 00    	mov    0x203667(%rip),%edx        # 605130 <target_id>
  401ac9:	48 8d 35 d3 15 00 00 	lea    0x15d3(%rip),%rsi        # 4030a3 <_IO_stdin_used+0x3d3>
  401ad0:	b8 00 00 00 00       	mov    $0x0,%eax
  401ad5:	e8 c6 f2 ff ff       	callq  400da0 <sprintf@plt>
  401ada:	48 83 c4 10          	add    $0x10,%rsp
  401ade:	83 3d a3 39 20 00 00 	cmpl   $0x0,0x2039a3(%rip)        # 605488 <notify>
  401ae5:	0f 84 b8 00 00 00    	je     401ba3 <notify_server+0x14b>
  401aeb:	85 db                	test   %ebx,%ebx
  401aed:	0f 84 a2 00 00 00    	je     401b95 <notify_server+0x13d>
  401af3:	48 8d 8c 24 00 20 00 	lea    0x2000(%rsp),%rcx
  401afa:	00 
  401afb:	49 89 e1             	mov    %rsp,%r9
  401afe:	41 b8 00 00 00 00    	mov    $0x0,%r8d
  401b04:	48 8b 15 3d 36 20 00 	mov    0x20363d(%rip),%rdx        # 605148 <lab>
  401b0b:	48 8b 35 3e 36 20 00 	mov    0x20363e(%rip),%rsi        # 605150 <course>
  401b12:	48 8b 3d 27 36 20 00 	mov    0x203627(%rip),%rdi        # 605140 <user_id>
  401b19:	e8 6e 10 00 00       	callq  402b8c <driver_post>
  401b1e:	85 c0                	test   %eax,%eax
  401b20:	78 55                	js     401b77 <notify_server+0x11f>
  401b22:	48 8d 3d bf 16 00 00 	lea    0x16bf(%rip),%rdi        # 4031e8 <_IO_stdin_used+0x518>
  401b29:	e8 02 f1 ff ff       	callq  400c30 <puts@plt>
  401b2e:	48 8d 3d 96 15 00 00 	lea    0x1596(%rip),%rdi        # 4030cb <_IO_stdin_used+0x3fb>
  401b35:	e8 f6 f0 ff ff       	callq  400c30 <puts@plt>
  401b3a:	48 81 c4 08 40 00 00 	add    $0x4008,%rsp
  401b41:	5b                   	pop    %rbx
  401b42:	5d                   	pop    %rbp
  401b43:	f3 c3                	repz retq 
  401b45:	48 8d 3d 6c 16 00 00 	lea    0x166c(%rip),%rdi        # 4031b8 <_IO_stdin_used+0x4e8>
  401b4c:	b8 00 00 00 00       	mov    $0x0,%eax
  401b51:	e8 0a f1 ff ff       	callq  400c60 <printf@plt>
  401b56:	bf 01 00 00 00       	mov    $0x1,%edi
  401b5b:	e8 50 f2 ff ff       	callq  400db0 <exit@plt>
  401b60:	41 b8 ff ff ff ff    	mov    $0xffffffff,%r8d
  401b66:	e9 35 ff ff ff       	jmpq   401aa0 <notify_server+0x48>
  401b6b:	48 8d 2d 2c 15 00 00 	lea    0x152c(%rip),%rbp        # 40309e <_IO_stdin_used+0x3ce>
  401b72:	e9 38 ff ff ff       	jmpq   401aaf <notify_server+0x57>
  401b77:	48 89 e6             	mov    %rsp,%rsi
  401b7a:	48 8d 3d 3e 15 00 00 	lea    0x153e(%rip),%rdi        # 4030bf <_IO_stdin_used+0x3ef>
  401b81:	b8 00 00 00 00       	mov    $0x0,%eax
  401b86:	e8 d5 f0 ff ff       	callq  400c60 <printf@plt>
  401b8b:	bf 01 00 00 00       	mov    $0x1,%edi
  401b90:	e8 1b f2 ff ff       	callq  400db0 <exit@plt>
  401b95:	48 8d 3d 39 15 00 00 	lea    0x1539(%rip),%rdi        # 4030d5 <_IO_stdin_used+0x405>
  401b9c:	e8 8f f0 ff ff       	callq  400c30 <puts@plt>
  401ba1:	eb 97                	jmp    401b3a <notify_server+0xe2>
  401ba3:	48 89 ee             	mov    %rbp,%rsi
  401ba6:	48 8d 3d 73 16 00 00 	lea    0x1673(%rip),%rdi        # 403220 <_IO_stdin_used+0x550>
  401bad:	b8 00 00 00 00       	mov    $0x0,%eax
  401bb2:	e8 a9 f0 ff ff       	callq  400c60 <printf@plt>
  401bb7:	48 8b 35 82 35 20 00 	mov    0x203582(%rip),%rsi        # 605140 <user_id>
  401bbe:	48 8d 3d 17 15 00 00 	lea    0x1517(%rip),%rdi        # 4030dc <_IO_stdin_used+0x40c>
  401bc5:	b8 00 00 00 00       	mov    $0x0,%eax
  401bca:	e8 91 f0 ff ff       	callq  400c60 <printf@plt>
  401bcf:	48 8b 35 7a 35 20 00 	mov    0x20357a(%rip),%rsi        # 605150 <course>
  401bd6:	48 8d 3d 0c 15 00 00 	lea    0x150c(%rip),%rdi        # 4030e9 <_IO_stdin_used+0x419>
  401bdd:	b8 00 00 00 00       	mov    $0x0,%eax
  401be2:	e8 79 f0 ff ff       	callq  400c60 <printf@plt>
  401be7:	48 8b 35 5a 35 20 00 	mov    0x20355a(%rip),%rsi        # 605148 <lab>
  401bee:	48 8d 3d 00 15 00 00 	lea    0x1500(%rip),%rdi        # 4030f5 <_IO_stdin_used+0x425>
  401bf5:	b8 00 00 00 00       	mov    $0x0,%eax
  401bfa:	e8 61 f0 ff ff       	callq  400c60 <printf@plt>
  401bff:	48 8d b4 24 00 20 00 	lea    0x2000(%rsp),%rsi
  401c06:	00 
  401c07:	48 8d 3d f0 14 00 00 	lea    0x14f0(%rip),%rdi        # 4030fe <_IO_stdin_used+0x42e>
  401c0e:	b8 00 00 00 00       	mov    $0x0,%eax
  401c13:	e8 48 f0 ff ff       	callq  400c60 <printf@plt>
  401c18:	e9 1d ff ff ff       	jmpq   401b3a <notify_server+0xe2>

0000000000401c1d <validate>:
  401c1d:	53                   	push   %rbx
  401c1e:	89 fb                	mov    %edi,%ebx
  401c20:	83 3d e1 38 20 00 00 	cmpl   $0x0,0x2038e1(%rip)        # 605508 <is_checker>
  401c27:	74 68                	je     401c91 <validate+0x74>
  401c29:	39 3d cd 38 20 00    	cmp    %edi,0x2038cd(%rip)        # 6054fc <vlevel>
  401c2f:	75 2d                	jne    401c5e <validate+0x41>
  401c31:	8b 35 c1 38 20 00    	mov    0x2038c1(%rip),%esi        # 6054f8 <check_level>
  401c37:	39 f7                	cmp    %esi,%edi
  401c39:	75 39                	jne    401c74 <validate+0x57>
  401c3b:	0f be 35 e6 44 20 00 	movsbl 0x2044e6(%rip),%esi        # 606128 <target_prefix>
  401c42:	48 8d 0d d7 38 20 00 	lea    0x2038d7(%rip),%rcx        # 605520 <gets_buf>
  401c49:	89 fa                	mov    %edi,%edx
  401c4b:	48 8d 3d d6 14 00 00 	lea    0x14d6(%rip),%rdi        # 403128 <_IO_stdin_used+0x458>
  401c52:	b8 00 00 00 00       	mov    $0x0,%eax
  401c57:	e8 04 f0 ff ff       	callq  400c60 <printf@plt>
  401c5c:	5b                   	pop    %rbx
  401c5d:	c3                   	retq   
  401c5e:	48 8d 3d a5 14 00 00 	lea    0x14a5(%rip),%rdi        # 40310a <_IO_stdin_used+0x43a>
  401c65:	e8 c6 ef ff ff       	callq  400c30 <puts@plt>
  401c6a:	b8 00 00 00 00       	mov    $0x0,%eax
  401c6f:	e8 5f fd ff ff       	callq  4019d3 <check_fail>
  401c74:	89 fa                	mov    %edi,%edx
  401c76:	48 8d 3d cb 15 00 00 	lea    0x15cb(%rip),%rdi        # 403248 <_IO_stdin_used+0x578>
  401c7d:	b8 00 00 00 00       	mov    $0x0,%eax
  401c82:	e8 d9 ef ff ff       	callq  400c60 <printf@plt>
  401c87:	b8 00 00 00 00       	mov    $0x0,%eax
  401c8c:	e8 42 fd ff ff       	callq  4019d3 <check_fail>
  401c91:	3b 3d 65 38 20 00    	cmp    0x203865(%rip),%edi        # 6054fc <vlevel>
  401c97:	74 1a                	je     401cb3 <validate+0x96>
  401c99:	48 8d 3d 6a 14 00 00 	lea    0x146a(%rip),%rdi        # 40310a <_IO_stdin_used+0x43a>
  401ca0:	e8 8b ef ff ff       	callq  400c30 <puts@plt>
  401ca5:	89 de                	mov    %ebx,%esi
  401ca7:	bf 00 00 00 00       	mov    $0x0,%edi
  401cac:	e8 a7 fd ff ff       	callq  401a58 <notify_server>
  401cb1:	eb a9                	jmp    401c5c <validate+0x3f>
  401cb3:	0f be 15 6e 44 20 00 	movsbl 0x20446e(%rip),%edx        # 606128 <target_prefix>
  401cba:	89 fe                	mov    %edi,%esi
  401cbc:	48 8d 3d ad 15 00 00 	lea    0x15ad(%rip),%rdi        # 403270 <_IO_stdin_used+0x5a0>
  401cc3:	b8 00 00 00 00       	mov    $0x0,%eax
  401cc8:	e8 93 ef ff ff       	callq  400c60 <printf@plt>
  401ccd:	89 de                	mov    %ebx,%esi
  401ccf:	bf 01 00 00 00       	mov    $0x1,%edi
  401cd4:	e8 7f fd ff ff       	callq  401a58 <notify_server>
  401cd9:	eb 81                	jmp    401c5c <validate+0x3f>

0000000000401cdb <fail>:
  401cdb:	48 83 ec 08          	sub    $0x8,%rsp
  401cdf:	83 3d 22 38 20 00 00 	cmpl   $0x0,0x203822(%rip)        # 605508 <is_checker>
  401ce6:	75 11                	jne    401cf9 <fail+0x1e>
  401ce8:	89 fe                	mov    %edi,%esi
  401cea:	bf 00 00 00 00       	mov    $0x0,%edi
  401cef:	e8 64 fd ff ff       	callq  401a58 <notify_server>
  401cf4:	48 83 c4 08          	add    $0x8,%rsp
  401cf8:	c3                   	retq   
  401cf9:	b8 00 00 00 00       	mov    $0x0,%eax
  401cfe:	e8 d0 fc ff ff       	callq  4019d3 <check_fail>

0000000000401d03 <bushandler>:
  401d03:	48 83 ec 08          	sub    $0x8,%rsp
  401d07:	83 3d fa 37 20 00 00 	cmpl   $0x0,0x2037fa(%rip)        # 605508 <is_checker>
  401d0e:	74 16                	je     401d26 <bushandler+0x23>
  401d10:	48 8d 3d 26 14 00 00 	lea    0x1426(%rip),%rdi        # 40313d <_IO_stdin_used+0x46d>
  401d17:	e8 14 ef ff ff       	callq  400c30 <puts@plt>
  401d1c:	b8 00 00 00 00       	mov    $0x0,%eax
  401d21:	e8 ad fc ff ff       	callq  4019d3 <check_fail>
  401d26:	48 8d 3d 7b 15 00 00 	lea    0x157b(%rip),%rdi        # 4032a8 <_IO_stdin_used+0x5d8>
  401d2d:	e8 fe ee ff ff       	callq  400c30 <puts@plt>
  401d32:	48 8d 3d 0e 14 00 00 	lea    0x140e(%rip),%rdi        # 403147 <_IO_stdin_used+0x477>
  401d39:	e8 f2 ee ff ff       	callq  400c30 <puts@plt>
  401d3e:	be 00 00 00 00       	mov    $0x0,%esi
  401d43:	bf 00 00 00 00       	mov    $0x0,%edi
  401d48:	e8 0b fd ff ff       	callq  401a58 <notify_server>
  401d4d:	bf 01 00 00 00       	mov    $0x1,%edi
  401d52:	e8 59 f0 ff ff       	callq  400db0 <exit@plt>

0000000000401d57 <seghandler>:
  401d57:	48 83 ec 08          	sub    $0x8,%rsp
  401d5b:	83 3d a6 37 20 00 00 	cmpl   $0x0,0x2037a6(%rip)        # 605508 <is_checker>
  401d62:	74 16                	je     401d7a <seghandler+0x23>
  401d64:	48 8d 3d f2 13 00 00 	lea    0x13f2(%rip),%rdi        # 40315d <_IO_stdin_used+0x48d>
  401d6b:	e8 c0 ee ff ff       	callq  400c30 <puts@plt>
  401d70:	b8 00 00 00 00       	mov    $0x0,%eax
  401d75:	e8 59 fc ff ff       	callq  4019d3 <check_fail>
  401d7a:	48 8d 3d 47 15 00 00 	lea    0x1547(%rip),%rdi        # 4032c8 <_IO_stdin_used+0x5f8>
  401d81:	e8 aa ee ff ff       	callq  400c30 <puts@plt>
  401d86:	48 8d 3d ba 13 00 00 	lea    0x13ba(%rip),%rdi        # 403147 <_IO_stdin_used+0x477>
  401d8d:	e8 9e ee ff ff       	callq  400c30 <puts@plt>
  401d92:	be 00 00 00 00       	mov    $0x0,%esi
  401d97:	bf 00 00 00 00       	mov    $0x0,%edi
  401d9c:	e8 b7 fc ff ff       	callq  401a58 <notify_server>
  401da1:	bf 01 00 00 00       	mov    $0x1,%edi
  401da6:	e8 05 f0 ff ff       	callq  400db0 <exit@plt>

0000000000401dab <illegalhandler>:
  401dab:	48 83 ec 08          	sub    $0x8,%rsp
  401daf:	83 3d 52 37 20 00 00 	cmpl   $0x0,0x203752(%rip)        # 605508 <is_checker>
  401db6:	74 16                	je     401dce <illegalhandler+0x23>
  401db8:	48 8d 3d b1 13 00 00 	lea    0x13b1(%rip),%rdi        # 403170 <_IO_stdin_used+0x4a0>
  401dbf:	e8 6c ee ff ff       	callq  400c30 <puts@plt>
  401dc4:	b8 00 00 00 00       	mov    $0x0,%eax
  401dc9:	e8 05 fc ff ff       	callq  4019d3 <check_fail>
  401dce:	48 8d 3d 1b 15 00 00 	lea    0x151b(%rip),%rdi        # 4032f0 <_IO_stdin_used+0x620>
  401dd5:	e8 56 ee ff ff       	callq  400c30 <puts@plt>
  401dda:	48 8d 3d 66 13 00 00 	lea    0x1366(%rip),%rdi        # 403147 <_IO_stdin_used+0x477>
  401de1:	e8 4a ee ff ff       	callq  400c30 <puts@plt>
  401de6:	be 00 00 00 00       	mov    $0x0,%esi
  401deb:	bf 00 00 00 00       	mov    $0x0,%edi
  401df0:	e8 63 fc ff ff       	callq  401a58 <notify_server>
  401df5:	bf 01 00 00 00       	mov    $0x1,%edi
  401dfa:	e8 b1 ef ff ff       	callq  400db0 <exit@plt>

0000000000401dff <sigalrmhandler>:
  401dff:	48 83 ec 08          	sub    $0x8,%rsp
  401e03:	83 3d fe 36 20 00 00 	cmpl   $0x0,0x2036fe(%rip)        # 605508 <is_checker>
  401e0a:	74 16                	je     401e22 <sigalrmhandler+0x23>
  401e0c:	48 8d 3d 71 13 00 00 	lea    0x1371(%rip),%rdi        # 403184 <_IO_stdin_used+0x4b4>
  401e13:	e8 18 ee ff ff       	callq  400c30 <puts@plt>
  401e18:	b8 00 00 00 00       	mov    $0x0,%eax
  401e1d:	e8 b1 fb ff ff       	callq  4019d3 <check_fail>
  401e22:	be 05 00 00 00       	mov    $0x5,%esi
  401e27:	48 8d 3d f2 14 00 00 	lea    0x14f2(%rip),%rdi        # 403320 <_IO_stdin_used+0x650>
  401e2e:	b8 00 00 00 00       	mov    $0x0,%eax
  401e33:	e8 28 ee ff ff       	callq  400c60 <printf@plt>
  401e38:	be 00 00 00 00       	mov    $0x0,%esi
  401e3d:	bf 00 00 00 00       	mov    $0x0,%edi
  401e42:	e8 11 fc ff ff       	callq  401a58 <notify_server>
  401e47:	bf 01 00 00 00       	mov    $0x1,%edi
  401e4c:	e8 5f ef ff ff       	callq  400db0 <exit@plt>

0000000000401e51 <launch>:
  401e51:	55                   	push   %rbp
  401e52:	48 89 e5             	mov    %rsp,%rbp
  401e55:	48 89 fa             	mov    %rdi,%rdx
  401e58:	48 8d 47 1e          	lea    0x1e(%rdi),%rax
  401e5c:	48 83 e0 f0          	and    $0xfffffffffffffff0,%rax
  401e60:	48 29 c4             	sub    %rax,%rsp
  401e63:	48 8d 7c 24 0f       	lea    0xf(%rsp),%rdi
  401e68:	48 83 e7 f0          	and    $0xfffffffffffffff0,%rdi
  401e6c:	be f4 00 00 00       	mov    $0xf4,%esi
  401e71:	e8 fa ed ff ff       	callq  400c70 <memset@plt>
  401e76:	48 8b 05 23 36 20 00 	mov    0x203623(%rip),%rax        # 6054a0 <stdin@@GLIBC_2.2.5>
  401e7d:	48 39 05 6c 36 20 00 	cmp    %rax,0x20366c(%rip)        # 6054f0 <infile>
  401e84:	74 2b                	je     401eb1 <launch+0x60>
  401e86:	c7 05 6c 36 20 00 00 	movl   $0x0,0x20366c(%rip)        # 6054fc <vlevel>
  401e8d:	00 00 00 
  401e90:	b8 00 00 00 00       	mov    $0x0,%eax
  401e95:	e8 7e f9 ff ff       	callq  401818 <test>
  401e9a:	83 3d 67 36 20 00 00 	cmpl   $0x0,0x203667(%rip)        # 605508 <is_checker>
  401ea1:	75 21                	jne    401ec4 <launch+0x73>
  401ea3:	48 8d 3d fa 12 00 00 	lea    0x12fa(%rip),%rdi        # 4031a4 <_IO_stdin_used+0x4d4>
  401eaa:	e8 81 ed ff ff       	callq  400c30 <puts@plt>
  401eaf:	c9                   	leaveq 
  401eb0:	c3                   	retq   
  401eb1:	48 8d 3d d4 12 00 00 	lea    0x12d4(%rip),%rdi        # 40318c <_IO_stdin_used+0x4bc>
  401eb8:	b8 00 00 00 00       	mov    $0x0,%eax
  401ebd:	e8 9e ed ff ff       	callq  400c60 <printf@plt>
  401ec2:	eb c2                	jmp    401e86 <launch+0x35>
  401ec4:	48 8d 3d ce 12 00 00 	lea    0x12ce(%rip),%rdi        # 403199 <_IO_stdin_used+0x4c9>
  401ecb:	e8 60 ed ff ff       	callq  400c30 <puts@plt>
  401ed0:	b8 00 00 00 00       	mov    $0x0,%eax
  401ed5:	e8 f9 fa ff ff       	callq  4019d3 <check_fail>

0000000000401eda <stable_launch>:
  401eda:	53                   	push   %rbx
  401edb:	48 89 3d 06 36 20 00 	mov    %rdi,0x203606(%rip)        # 6054e8 <global_offset>
  401ee2:	41 b9 00 00 00 00    	mov    $0x0,%r9d
  401ee8:	41 b8 00 00 00 00    	mov    $0x0,%r8d
  401eee:	b9 32 01 00 00       	mov    $0x132,%ecx
  401ef3:	ba 07 00 00 00       	mov    $0x7,%edx
  401ef8:	be 00 00 10 00       	mov    $0x100000,%esi
  401efd:	bf 00 60 58 55       	mov    $0x55586000,%edi
  401f02:	e8 49 ed ff ff       	callq  400c50 <mmap@plt>
  401f07:	48 89 c3             	mov    %rax,%rbx
  401f0a:	48 3d 00 60 58 55    	cmp    $0x55586000,%rax
  401f10:	75 43                	jne    401f55 <stable_launch+0x7b>
  401f12:	48 8d 90 f8 ff 0f 00 	lea    0xffff8(%rax),%rdx
  401f19:	48 89 15 10 42 20 00 	mov    %rdx,0x204210(%rip)        # 606130 <stack_top>
  401f20:	48 89 e0             	mov    %rsp,%rax
  401f23:	48 89 d4             	mov    %rdx,%rsp
  401f26:	48 89 c2             	mov    %rax,%rdx
  401f29:	48 89 15 b0 35 20 00 	mov    %rdx,0x2035b0(%rip)        # 6054e0 <global_save_stack>
  401f30:	48 8b 3d b1 35 20 00 	mov    0x2035b1(%rip),%rdi        # 6054e8 <global_offset>
  401f37:	e8 15 ff ff ff       	callq  401e51 <launch>
  401f3c:	48 8b 05 9d 35 20 00 	mov    0x20359d(%rip),%rax        # 6054e0 <global_save_stack>
  401f43:	48 89 c4             	mov    %rax,%rsp
  401f46:	be 00 00 10 00       	mov    $0x100000,%esi
  401f4b:	48 89 df             	mov    %rbx,%rdi
  401f4e:	e8 ed ed ff ff       	callq  400d40 <munmap@plt>
  401f53:	5b                   	pop    %rbx
  401f54:	c3                   	retq   
  401f55:	be 00 00 10 00       	mov    $0x100000,%esi
  401f5a:	48 89 c7             	mov    %rax,%rdi
  401f5d:	e8 de ed ff ff       	callq  400d40 <munmap@plt>
  401f62:	ba 00 60 58 55       	mov    $0x55586000,%edx
  401f67:	48 8d 35 ea 13 00 00 	lea    0x13ea(%rip),%rsi        # 403358 <_IO_stdin_used+0x688>
  401f6e:	48 8b 3d 4b 35 20 00 	mov    0x20354b(%rip),%rdi        # 6054c0 <stderr@@GLIBC_2.2.5>
  401f75:	b8 00 00 00 00       	mov    $0x0,%eax
  401f7a:	e8 51 ed ff ff       	callq  400cd0 <fprintf@plt>
  401f7f:	bf 01 00 00 00       	mov    $0x1,%edi
  401f84:	e8 27 ee ff ff       	callq  400db0 <exit@plt>

0000000000401f89 <rio_readinitb>:
  401f89:	89 37                	mov    %esi,(%rdi)
  401f8b:	c7 47 04 00 00 00 00 	movl   $0x0,0x4(%rdi)
  401f92:	48 8d 47 10          	lea    0x10(%rdi),%rax
  401f96:	48 89 47 08          	mov    %rax,0x8(%rdi)
  401f9a:	c3                   	retq   

0000000000401f9b <sigalrm_handler>:
  401f9b:	48 83 ec 08          	sub    $0x8,%rsp
  401f9f:	ba 00 00 00 00       	mov    $0x0,%edx
  401fa4:	48 8d 35 e5 13 00 00 	lea    0x13e5(%rip),%rsi        # 403390 <trans_char+0x10>
  401fab:	48 8b 3d 0e 35 20 00 	mov    0x20350e(%rip),%rdi        # 6054c0 <stderr@@GLIBC_2.2.5>
  401fb2:	b8 00 00 00 00       	mov    $0x0,%eax
  401fb7:	e8 14 ed ff ff       	callq  400cd0 <fprintf@plt>
  401fbc:	bf 01 00 00 00       	mov    $0x1,%edi
  401fc1:	e8 ea ed ff ff       	callq  400db0 <exit@plt>

0000000000401fc6 <urlencode>:
  401fc6:	41 54                	push   %r12
  401fc8:	55                   	push   %rbp
  401fc9:	53                   	push   %rbx
  401fca:	48 83 ec 10          	sub    $0x10,%rsp
  401fce:	48 89 fb             	mov    %rdi,%rbx
  401fd1:	48 89 f5             	mov    %rsi,%rbp
  401fd4:	b8 00 00 00 00       	mov    $0x0,%eax
  401fd9:	48 c7 c1 ff ff ff ff 	mov    $0xffffffffffffffff,%rcx
  401fe0:	f2 ae                	repnz scas %es:(%rdi),%al
  401fe2:	48 f7 d1             	not    %rcx
  401fe5:	8d 41 ff             	lea    -0x1(%rcx),%eax
  401fe8:	eb 0e                	jmp    401ff8 <urlencode+0x32>
  401fea:	88 55 00             	mov    %dl,0x0(%rbp)
  401fed:	48 8d 6d 01          	lea    0x1(%rbp),%rbp
  401ff1:	48 83 c3 01          	add    $0x1,%rbx
  401ff5:	44 89 e0             	mov    %r12d,%eax
  401ff8:	44 8d 60 ff          	lea    -0x1(%rax),%r12d
  401ffc:	85 c0                	test   %eax,%eax
  401ffe:	0f 84 95 00 00 00    	je     402099 <urlencode+0xd3>
  402004:	0f b6 13             	movzbl (%rbx),%edx
  402007:	80 fa 2a             	cmp    $0x2a,%dl
  40200a:	0f 94 c1             	sete   %cl
  40200d:	80 fa 2d             	cmp    $0x2d,%dl
  402010:	0f 94 c0             	sete   %al
  402013:	08 c1                	or     %al,%cl
  402015:	75 d3                	jne    401fea <urlencode+0x24>
  402017:	80 fa 2e             	cmp    $0x2e,%dl
  40201a:	74 ce                	je     401fea <urlencode+0x24>
  40201c:	80 fa 5f             	cmp    $0x5f,%dl
  40201f:	74 c9                	je     401fea <urlencode+0x24>
  402021:	8d 42 d0             	lea    -0x30(%rdx),%eax
  402024:	3c 09                	cmp    $0x9,%al
  402026:	76 c2                	jbe    401fea <urlencode+0x24>
  402028:	8d 42 bf             	lea    -0x41(%rdx),%eax
  40202b:	3c 19                	cmp    $0x19,%al
  40202d:	76 bb                	jbe    401fea <urlencode+0x24>
  40202f:	8d 42 9f             	lea    -0x61(%rdx),%eax
  402032:	3c 19                	cmp    $0x19,%al
  402034:	76 b4                	jbe    401fea <urlencode+0x24>
  402036:	80 fa 20             	cmp    $0x20,%dl
  402039:	74 4c                	je     402087 <urlencode+0xc1>
  40203b:	8d 42 e0             	lea    -0x20(%rdx),%eax
  40203e:	3c 5f                	cmp    $0x5f,%al
  402040:	0f 96 c1             	setbe  %cl
  402043:	80 fa 09             	cmp    $0x9,%dl
  402046:	0f 94 c0             	sete   %al
  402049:	08 c1                	or     %al,%cl
  40204b:	74 47                	je     402094 <urlencode+0xce>
  40204d:	0f b6 d2             	movzbl %dl,%edx
  402050:	48 8d 7c 24 08       	lea    0x8(%rsp),%rdi
  402055:	48 8d 35 cc 13 00 00 	lea    0x13cc(%rip),%rsi        # 403428 <trans_char+0xa8>
  40205c:	b8 00 00 00 00       	mov    $0x0,%eax
  402061:	e8 3a ed ff ff       	callq  400da0 <sprintf@plt>
  402066:	0f b6 44 24 08       	movzbl 0x8(%rsp),%eax
  40206b:	88 45 00             	mov    %al,0x0(%rbp)
  40206e:	0f b6 44 24 09       	movzbl 0x9(%rsp),%eax
  402073:	88 45 01             	mov    %al,0x1(%rbp)
  402076:	0f b6 44 24 0a       	movzbl 0xa(%rsp),%eax
  40207b:	88 45 02             	mov    %al,0x2(%rbp)
  40207e:	48 8d 6d 03          	lea    0x3(%rbp),%rbp
  402082:	e9 6a ff ff ff       	jmpq   401ff1 <urlencode+0x2b>
  402087:	c6 45 00 2b          	movb   $0x2b,0x0(%rbp)
  40208b:	48 8d 6d 01          	lea    0x1(%rbp),%rbp
  40208f:	e9 5d ff ff ff       	jmpq   401ff1 <urlencode+0x2b>
  402094:	b8 ff ff ff ff       	mov    $0xffffffff,%eax
  402099:	48 83 c4 10          	add    $0x10,%rsp
  40209d:	5b                   	pop    %rbx
  40209e:	5d                   	pop    %rbp
  40209f:	41 5c                	pop    %r12
  4020a1:	c3                   	retq   

00000000004020a2 <rio_writen>:
  4020a2:	41 55                	push   %r13
  4020a4:	41 54                	push   %r12
  4020a6:	55                   	push   %rbp
  4020a7:	53                   	push   %rbx
  4020a8:	48 83 ec 08          	sub    $0x8,%rsp
  4020ac:	41 89 fc             	mov    %edi,%r12d
  4020af:	49 89 d5             	mov    %rdx,%r13
  4020b2:	48 89 f5             	mov    %rsi,%rbp
  4020b5:	48 89 d3             	mov    %rdx,%rbx
  4020b8:	eb 06                	jmp    4020c0 <rio_writen+0x1e>
  4020ba:	48 29 c3             	sub    %rax,%rbx
  4020bd:	48 01 c5             	add    %rax,%rbp
  4020c0:	48 85 db             	test   %rbx,%rbx
  4020c3:	74 24                	je     4020e9 <rio_writen+0x47>
  4020c5:	48 89 da             	mov    %rbx,%rdx
  4020c8:	48 89 ee             	mov    %rbp,%rsi
  4020cb:	44 89 e7             	mov    %r12d,%edi
  4020ce:	e8 6d eb ff ff       	callq  400c40 <write@plt>
  4020d3:	48 85 c0             	test   %rax,%rax
  4020d6:	7f e2                	jg     4020ba <rio_writen+0x18>
  4020d8:	e8 13 eb ff ff       	callq  400bf0 <__errno_location@plt>
  4020dd:	83 38 04             	cmpl   $0x4,(%rax)
  4020e0:	75 15                	jne    4020f7 <rio_writen+0x55>
  4020e2:	b8 00 00 00 00       	mov    $0x0,%eax
  4020e7:	eb d1                	jmp    4020ba <rio_writen+0x18>
  4020e9:	4c 89 e8             	mov    %r13,%rax
  4020ec:	48 83 c4 08          	add    $0x8,%rsp
  4020f0:	5b                   	pop    %rbx
  4020f1:	5d                   	pop    %rbp
  4020f2:	41 5c                	pop    %r12
  4020f4:	41 5d                	pop    %r13
  4020f6:	c3                   	retq   
  4020f7:	48 c7 c0 ff ff ff ff 	mov    $0xffffffffffffffff,%rax
  4020fe:	eb ec                	jmp    4020ec <rio_writen+0x4a>

0000000000402100 <rio_read>:
  402100:	41 55                	push   %r13
  402102:	41 54                	push   %r12
  402104:	55                   	push   %rbp
  402105:	53                   	push   %rbx
  402106:	48 83 ec 08          	sub    $0x8,%rsp
  40210a:	48 89 fb             	mov    %rdi,%rbx
  40210d:	49 89 f5             	mov    %rsi,%r13
  402110:	49 89 d4             	mov    %rdx,%r12
  402113:	eb 0a                	jmp    40211f <rio_read+0x1f>
  402115:	e8 d6 ea ff ff       	callq  400bf0 <__errno_location@plt>
  40211a:	83 38 04             	cmpl   $0x4,(%rax)
  40211d:	75 5c                	jne    40217b <rio_read+0x7b>
  40211f:	8b 6b 04             	mov    0x4(%rbx),%ebp
  402122:	85 ed                	test   %ebp,%ebp
  402124:	7f 24                	jg     40214a <rio_read+0x4a>
  402126:	48 8d 6b 10          	lea    0x10(%rbx),%rbp
  40212a:	ba 00 20 00 00       	mov    $0x2000,%edx
  40212f:	48 89 ee             	mov    %rbp,%rsi
  402132:	8b 3b                	mov    (%rbx),%edi
  402134:	e8 67 eb ff ff       	callq  400ca0 <read@plt>
  402139:	89 43 04             	mov    %eax,0x4(%rbx)
  40213c:	85 c0                	test   %eax,%eax
  40213e:	78 d5                	js     402115 <rio_read+0x15>
  402140:	85 c0                	test   %eax,%eax
  402142:	74 40                	je     402184 <rio_read+0x84>
  402144:	48 89 6b 08          	mov    %rbp,0x8(%rbx)
  402148:	eb d5                	jmp    40211f <rio_read+0x1f>
  40214a:	89 e8                	mov    %ebp,%eax
  40214c:	49 39 c4             	cmp    %rax,%r12
  40214f:	77 03                	ja     402154 <rio_read+0x54>
  402151:	44 89 e5             	mov    %r12d,%ebp
  402154:	4c 63 e5             	movslq %ebp,%r12
  402157:	48 8b 73 08          	mov    0x8(%rbx),%rsi
  40215b:	4c 89 e2             	mov    %r12,%rdx
  40215e:	4c 89 ef             	mov    %r13,%rdi
  402161:	e8 8a eb ff ff       	callq  400cf0 <memcpy@plt>
  402166:	4c 01 63 08          	add    %r12,0x8(%rbx)
  40216a:	29 6b 04             	sub    %ebp,0x4(%rbx)
  40216d:	4c 89 e0             	mov    %r12,%rax
  402170:	48 83 c4 08          	add    $0x8,%rsp
  402174:	5b                   	pop    %rbx
  402175:	5d                   	pop    %rbp
  402176:	41 5c                	pop    %r12
  402178:	41 5d                	pop    %r13
  40217a:	c3                   	retq   
  40217b:	48 c7 c0 ff ff ff ff 	mov    $0xffffffffffffffff,%rax
  402182:	eb ec                	jmp    402170 <rio_read+0x70>
  402184:	b8 00 00 00 00       	mov    $0x0,%eax
  402189:	eb e5                	jmp    402170 <rio_read+0x70>

000000000040218b <rio_readlineb>:
  40218b:	41 55                	push   %r13
  40218d:	41 54                	push   %r12
  40218f:	55                   	push   %rbp
  402190:	53                   	push   %rbx
  402191:	48 83 ec 18          	sub    $0x18,%rsp
  402195:	49 89 fd             	mov    %rdi,%r13
  402198:	49 89 d4             	mov    %rdx,%r12
  40219b:	48 89 f5             	mov    %rsi,%rbp
  40219e:	bb 01 00 00 00       	mov    $0x1,%ebx
  4021a3:	4c 39 e3             	cmp    %r12,%rbx
  4021a6:	73 47                	jae    4021ef <rio_readlineb+0x64>
  4021a8:	48 8d 74 24 0f       	lea    0xf(%rsp),%rsi
  4021ad:	ba 01 00 00 00       	mov    $0x1,%edx
  4021b2:	4c 89 ef             	mov    %r13,%rdi
  4021b5:	e8 46 ff ff ff       	callq  402100 <rio_read>
  4021ba:	83 f8 01             	cmp    $0x1,%eax
  4021bd:	75 1c                	jne    4021db <rio_readlineb+0x50>
  4021bf:	48 8d 45 01          	lea    0x1(%rbp),%rax
  4021c3:	0f b6 54 24 0f       	movzbl 0xf(%rsp),%edx
  4021c8:	88 55 00             	mov    %dl,0x0(%rbp)
  4021cb:	80 7c 24 0f 0a       	cmpb   $0xa,0xf(%rsp)
  4021d0:	74 1a                	je     4021ec <rio_readlineb+0x61>
  4021d2:	48 83 c3 01          	add    $0x1,%rbx
  4021d6:	48 89 c5             	mov    %rax,%rbp
  4021d9:	eb c8                	jmp    4021a3 <rio_readlineb+0x18>
  4021db:	85 c0                	test   %eax,%eax
  4021dd:	75 22                	jne    402201 <rio_readlineb+0x76>
  4021df:	48 83 fb 01          	cmp    $0x1,%rbx
  4021e3:	75 0a                	jne    4021ef <rio_readlineb+0x64>
  4021e5:	b8 00 00 00 00       	mov    $0x0,%eax
  4021ea:	eb 0a                	jmp    4021f6 <rio_readlineb+0x6b>
  4021ec:	48 89 c5             	mov    %rax,%rbp
  4021ef:	c6 45 00 00          	movb   $0x0,0x0(%rbp)
  4021f3:	48 89 d8             	mov    %rbx,%rax
  4021f6:	48 83 c4 18          	add    $0x18,%rsp
  4021fa:	5b                   	pop    %rbx
  4021fb:	5d                   	pop    %rbp
  4021fc:	41 5c                	pop    %r12
  4021fe:	41 5d                	pop    %r13
  402200:	c3                   	retq   
  402201:	48 c7 c0 ff ff ff ff 	mov    $0xffffffffffffffff,%rax
  402208:	eb ec                	jmp    4021f6 <rio_readlineb+0x6b>

000000000040220a <submitr>:
  40220a:	41 57                	push   %r15
  40220c:	41 56                	push   %r14
  40220e:	41 55                	push   %r13
  402210:	41 54                	push   %r12
  402212:	55                   	push   %rbp
  402213:	53                   	push   %rbx
  402214:	48 81 ec 58 a0 00 00 	sub    $0xa058,%rsp
  40221b:	49 89 fd             	mov    %rdi,%r13
  40221e:	89 74 24 14          	mov    %esi,0x14(%rsp)
  402222:	49 89 d7             	mov    %rdx,%r15
  402225:	48 89 4c 24 08       	mov    %rcx,0x8(%rsp)
  40222a:	4c 89 44 24 18       	mov    %r8,0x18(%rsp)
  40222f:	4d 89 ce             	mov    %r9,%r14
  402232:	48 8b 9c 24 90 a0 00 	mov    0xa090(%rsp),%rbx
  402239:	00 
  40223a:	c7 84 24 2c 20 00 00 	movl   $0x0,0x202c(%rsp)
  402241:	00 00 00 00 
  402245:	ba 00 00 00 00       	mov    $0x0,%edx
  40224a:	be 01 00 00 00       	mov    $0x1,%esi
  40224f:	bf 02 00 00 00       	mov    $0x2,%edi
  402254:	e8 77 eb ff ff       	callq  400dd0 <socket@plt>
  402259:	85 c0                	test   %eax,%eax
  40225b:	0f 88 ca 01 00 00    	js     40242b <submitr+0x221>
  402261:	89 c5                	mov    %eax,%ebp
  402263:	4c 89 ef             	mov    %r13,%rdi
  402266:	e8 55 ea ff ff       	callq  400cc0 <gethostbyname@plt>
  40226b:	48 85 c0             	test   %rax,%rax
  40226e:	0f 84 05 02 00 00    	je     402479 <submitr+0x26f>
  402274:	4c 8d a4 24 40 a0 00 	lea    0xa040(%rsp),%r12
  40227b:	00 
  40227c:	48 c7 84 24 40 a0 00 	movq   $0x0,0xa040(%rsp)
  402283:	00 00 00 00 00 
  402288:	48 c7 84 24 48 a0 00 	movq   $0x0,0xa048(%rsp)
  40228f:	00 00 00 00 00 
  402294:	66 c7 84 24 40 a0 00 	movw   $0x2,0xa040(%rsp)
  40229b:	00 02 00 
  40229e:	48 8b 48 18          	mov    0x18(%rax),%rcx
  4022a2:	48 63 50 14          	movslq 0x14(%rax),%rdx
  4022a6:	48 8d b4 24 44 a0 00 	lea    0xa044(%rsp),%rsi
  4022ad:	00 
  4022ae:	48 8b 39             	mov    (%rcx),%rdi
  4022b1:	e8 9a ea ff ff       	callq  400d50 <bcopy@plt>
  4022b6:	0f b7 44 24 14       	movzwl 0x14(%rsp),%eax
  4022bb:	66 c1 c8 08          	ror    $0x8,%ax
  4022bf:	66 89 84 24 42 a0 00 	mov    %ax,0xa042(%rsp)
  4022c6:	00 
  4022c7:	ba 10 00 00 00       	mov    $0x10,%edx
  4022cc:	4c 89 e6             	mov    %r12,%rsi
  4022cf:	89 ef                	mov    %ebp,%edi
  4022d1:	e8 ea ea ff ff       	callq  400dc0 <connect@plt>
  4022d6:	85 c0                	test   %eax,%eax
  4022d8:	0f 88 02 02 00 00    	js     4024e0 <submitr+0x2d6>
  4022de:	48 c7 c6 ff ff ff ff 	mov    $0xffffffffffffffff,%rsi
  4022e5:	b8 00 00 00 00       	mov    $0x0,%eax
  4022ea:	48 89 f1             	mov    %rsi,%rcx
  4022ed:	4c 89 f7             	mov    %r14,%rdi
  4022f0:	f2 ae                	repnz scas %es:(%rdi),%al
  4022f2:	48 f7 d1             	not    %rcx
  4022f5:	48 89 ca             	mov    %rcx,%rdx
  4022f8:	48 89 f1             	mov    %rsi,%rcx
  4022fb:	4c 89 ff             	mov    %r15,%rdi
  4022fe:	f2 ae                	repnz scas %es:(%rdi),%al
  402300:	48 f7 d1             	not    %rcx
  402303:	49 89 c8             	mov    %rcx,%r8
  402306:	48 89 f1             	mov    %rsi,%rcx
  402309:	48 8b 7c 24 08       	mov    0x8(%rsp),%rdi
  40230e:	f2 ae                	repnz scas %es:(%rdi),%al
  402310:	48 f7 d1             	not    %rcx
  402313:	4d 8d 44 08 fe       	lea    -0x2(%r8,%rcx,1),%r8
  402318:	48 89 f1             	mov    %rsi,%rcx
  40231b:	48 8b 7c 24 18       	mov    0x18(%rsp),%rdi
  402320:	f2 ae                	repnz scas %es:(%rdi),%al
  402322:	48 89 c8             	mov    %rcx,%rax
  402325:	48 f7 d0             	not    %rax
  402328:	49 8d 4c 00 ff       	lea    -0x1(%r8,%rax,1),%rcx
  40232d:	48 8d 44 52 fd       	lea    -0x3(%rdx,%rdx,2),%rax
  402332:	48 8d 84 01 80 00 00 	lea    0x80(%rcx,%rax,1),%rax
  402339:	00 
  40233a:	48 3d 00 20 00 00    	cmp    $0x2000,%rax
  402340:	0f 87 f3 01 00 00    	ja     402539 <submitr+0x32f>
  402346:	48 8d b4 24 30 40 00 	lea    0x4030(%rsp),%rsi
  40234d:	00 
  40234e:	b9 00 04 00 00       	mov    $0x400,%ecx
  402353:	b8 00 00 00 00       	mov    $0x0,%eax
  402358:	48 89 f7             	mov    %rsi,%rdi
  40235b:	f3 48 ab             	rep stos %rax,%es:(%rdi)
  40235e:	4c 89 f7             	mov    %r14,%rdi
  402361:	e8 60 fc ff ff       	callq  401fc6 <urlencode>
  402366:	85 c0                	test   %eax,%eax
  402368:	0f 88 3d 02 00 00    	js     4025ab <submitr+0x3a1>
  40236e:	4c 8d a4 24 30 60 00 	lea    0x6030(%rsp),%r12
  402375:	00 
  402376:	4d 89 e9             	mov    %r13,%r9
  402379:	4c 8d 84 24 30 40 00 	lea    0x4030(%rsp),%r8
  402380:	00 
  402381:	4c 89 f9             	mov    %r15,%rcx
  402384:	48 8b 54 24 08       	mov    0x8(%rsp),%rdx
  402389:	48 8d 35 28 10 00 00 	lea    0x1028(%rip),%rsi        # 4033b8 <trans_char+0x38>
  402390:	4c 89 e7             	mov    %r12,%rdi
  402393:	b8 00 00 00 00       	mov    $0x0,%eax
  402398:	e8 03 ea ff ff       	callq  400da0 <sprintf@plt>
  40239d:	b8 00 00 00 00       	mov    $0x0,%eax
  4023a2:	48 c7 c1 ff ff ff ff 	mov    $0xffffffffffffffff,%rcx
  4023a9:	4c 89 e7             	mov    %r12,%rdi
  4023ac:	f2 ae                	repnz scas %es:(%rdi),%al
  4023ae:	48 f7 d1             	not    %rcx
  4023b1:	48 8d 51 ff          	lea    -0x1(%rcx),%rdx
  4023b5:	4c 89 e6             	mov    %r12,%rsi
  4023b8:	89 ef                	mov    %ebp,%edi
  4023ba:	e8 e3 fc ff ff       	callq  4020a2 <rio_writen>
  4023bf:	48 85 c0             	test   %rax,%rax
  4023c2:	0f 88 6d 02 00 00    	js     402635 <submitr+0x42b>
  4023c8:	4c 8d a4 24 30 80 00 	lea    0x8030(%rsp),%r12
  4023cf:	00 
  4023d0:	89 ee                	mov    %ebp,%esi
  4023d2:	4c 89 e7             	mov    %r12,%rdi
  4023d5:	e8 af fb ff ff       	callq  401f89 <rio_readinitb>
  4023da:	48 8d b4 24 30 60 00 	lea    0x6030(%rsp),%rsi
  4023e1:	00 
  4023e2:	ba 00 20 00 00       	mov    $0x2000,%edx
  4023e7:	4c 89 e7             	mov    %r12,%rdi
  4023ea:	e8 9c fd ff ff       	callq  40218b <rio_readlineb>
  4023ef:	48 85 c0             	test   %rax,%rax
  4023f2:	0f 8e ab 02 00 00    	jle    4026a3 <submitr+0x499>
  4023f8:	48 8d 8c 24 2c 20 00 	lea    0x202c(%rsp),%rcx
  4023ff:	00 
  402400:	48 8d 94 24 30 20 00 	lea    0x2030(%rsp),%rdx
  402407:	00 
  402408:	48 8d bc 24 30 60 00 	lea    0x6030(%rsp),%rdi
  40240f:	00 
  402410:	4c 8d 44 24 20       	lea    0x20(%rsp),%r8
  402415:	48 8d 35 13 10 00 00 	lea    0x1013(%rip),%rsi        # 40342f <trans_char+0xaf>
  40241c:	b8 00 00 00 00       	mov    $0x0,%eax
  402421:	e8 0a e9 ff ff       	callq  400d30 <__isoc99_sscanf@plt>
  402426:	e9 9f 03 00 00       	jmpq   4027ca <submitr+0x5c0>
  40242b:	48 b8 45 72 72 6f 72 	movabs $0x43203a726f727245,%rax
  402432:	3a 20 43 
  402435:	48 89 03             	mov    %rax,(%rbx)
  402438:	48 b8 6c 69 65 6e 74 	movabs $0x6e7520746e65696c,%rax
  40243f:	20 75 6e 
  402442:	48 89 43 08          	mov    %rax,0x8(%rbx)
  402446:	48 b8 61 62 6c 65 20 	movabs $0x206f7420656c6261,%rax
  40244d:	74 6f 20 
  402450:	48 89 43 10          	mov    %rax,0x10(%rbx)
  402454:	48 b8 63 72 65 61 74 	movabs $0x7320657461657263,%rax
  40245b:	65 20 73 
  40245e:	48 89 43 18          	mov    %rax,0x18(%rbx)
  402462:	c7 43 20 6f 63 6b 65 	movl   $0x656b636f,0x20(%rbx)
  402469:	66 c7 43 24 74 00    	movw   $0x74,0x24(%rbx)
  40246f:	b8 ff ff ff ff       	mov    $0xffffffff,%eax
  402474:	e9 18 03 00 00       	jmpq   402791 <submitr+0x587>
  402479:	48 b8 45 72 72 6f 72 	movabs $0x44203a726f727245,%rax
  402480:	3a 20 44 
  402483:	48 89 03             	mov    %rax,(%rbx)
  402486:	48 b8 4e 53 20 69 73 	movabs $0x6e7520736920534e,%rax
  40248d:	20 75 6e 
  402490:	48 89 43 08          	mov    %rax,0x8(%rbx)
  402494:	48 b8 61 62 6c 65 20 	movabs $0x206f7420656c6261,%rax
  40249b:	74 6f 20 
  40249e:	48 89 43 10          	mov    %rax,0x10(%rbx)
  4024a2:	48 b8 72 65 73 6f 6c 	movabs $0x2065766c6f736572,%rax
  4024a9:	76 65 20 
  4024ac:	48 89 43 18          	mov    %rax,0x18(%rbx)
  4024b0:	48 b8 73 65 72 76 65 	movabs $0x6120726576726573,%rax
  4024b7:	72 20 61 
  4024ba:	48 89 43 20          	mov    %rax,0x20(%rbx)
  4024be:	c7 43 28 64 64 72 65 	movl   $0x65726464,0x28(%rbx)
  4024c5:	66 c7 43 2c 73 73    	movw   $0x7373,0x2c(%rbx)
  4024cb:	c6 43 2e 00          	movb   $0x0,0x2e(%rbx)
  4024cf:	89 ef                	mov    %ebp,%edi
  4024d1:	e8 ba e7 ff ff       	callq  400c90 <close@plt>
  4024d6:	b8 ff ff ff ff       	mov    $0xffffffff,%eax
  4024db:	e9 b1 02 00 00       	jmpq   402791 <submitr+0x587>
  4024e0:	48 b8 45 72 72 6f 72 	movabs $0x55203a726f727245,%rax
  4024e7:	3a 20 55 
  4024ea:	48 89 03             	mov    %rax,(%rbx)
  4024ed:	48 b8 6e 61 62 6c 65 	movabs $0x6f7420656c62616e,%rax
  4024f4:	20 74 6f 
  4024f7:	48 89 43 08          	mov    %rax,0x8(%rbx)
  4024fb:	48 b8 20 63 6f 6e 6e 	movabs $0x7463656e6e6f6320,%rax
  402502:	65 63 74 
  402505:	48 89 43 10          	mov    %rax,0x10(%rbx)
  402509:	48 b8 20 74 6f 20 74 	movabs $0x20656874206f7420,%rax
  402510:	68 65 20 
  402513:	48 89 43 18          	mov    %rax,0x18(%rbx)
  402517:	c7 43 20 73 65 72 76 	movl   $0x76726573,0x20(%rbx)
  40251e:	66 c7 43 24 65 72    	movw   $0x7265,0x24(%rbx)
  402524:	c6 43 26 00          	movb   $0x0,0x26(%rbx)
  402528:	89 ef                	mov    %ebp,%edi
  40252a:	e8 61 e7 ff ff       	callq  400c90 <close@plt>
  40252f:	b8 ff ff ff ff       	mov    $0xffffffff,%eax
  402534:	e9 58 02 00 00       	jmpq   402791 <submitr+0x587>
  402539:	48 b8 45 72 72 6f 72 	movabs $0x52203a726f727245,%rax
  402540:	3a 20 52 
  402543:	48 89 03             	mov    %rax,(%rbx)
  402546:	48 b8 65 73 75 6c 74 	movabs $0x747320746c757365,%rax
  40254d:	20 73 74 
  402550:	48 89 43 08          	mov    %rax,0x8(%rbx)
  402554:	48 b8 72 69 6e 67 20 	movabs $0x6f6f7420676e6972,%rax
  40255b:	74 6f 6f 
  40255e:	48 89 43 10          	mov    %rax,0x10(%rbx)
  402562:	48 b8 20 6c 61 72 67 	movabs $0x202e656772616c20,%rax
  402569:	65 2e 20 
  40256c:	48 89 43 18          	mov    %rax,0x18(%rbx)
  402570:	48 b8 49 6e 63 72 65 	movabs $0x6573616572636e49,%rax
  402577:	61 73 65 
  40257a:	48 89 43 20          	mov    %rax,0x20(%rbx)
  40257e:	48 b8 20 53 55 42 4d 	movabs $0x5254494d42555320,%rax
  402585:	49 54 52 
  402588:	48 89 43 28          	mov    %rax,0x28(%rbx)
  40258c:	48 b8 5f 4d 41 58 42 	movabs $0x46554258414d5f,%rax
  402593:	55 46 00 
  402596:	48 89 43 30          	mov    %rax,0x30(%rbx)
  40259a:	89 ef                	mov    %ebp,%edi
  40259c:	e8 ef e6 ff ff       	callq  400c90 <close@plt>
  4025a1:	b8 ff ff ff ff       	mov    $0xffffffff,%eax
  4025a6:	e9 e6 01 00 00       	jmpq   402791 <submitr+0x587>
  4025ab:	48 b8 45 72 72 6f 72 	movabs $0x52203a726f727245,%rax
  4025b2:	3a 20 52 
  4025b5:	48 89 03             	mov    %rax,(%rbx)
  4025b8:	48 b8 65 73 75 6c 74 	movabs $0x747320746c757365,%rax
  4025bf:	20 73 74 
  4025c2:	48 89 43 08          	mov    %rax,0x8(%rbx)
  4025c6:	48 b8 72 69 6e 67 20 	movabs $0x6e6f6320676e6972,%rax
  4025cd:	63 6f 6e 
  4025d0:	48 89 43 10          	mov    %rax,0x10(%rbx)
  4025d4:	48 b8 74 61 69 6e 73 	movabs $0x6e6120736e696174,%rax
  4025db:	20 61 6e 
  4025de:	48 89 43 18          	mov    %rax,0x18(%rbx)
  4025e2:	48 b8 20 69 6c 6c 65 	movabs $0x6c6167656c6c6920,%rax
  4025e9:	67 61 6c 
  4025ec:	48 89 43 20          	mov    %rax,0x20(%rbx)
  4025f0:	48 b8 20 6f 72 20 75 	movabs $0x72706e7520726f20,%rax
  4025f7:	6e 70 72 
  4025fa:	48 89 43 28          	mov    %rax,0x28(%rbx)
  4025fe:	48 b8 69 6e 74 61 62 	movabs $0x20656c6261746e69,%rax
  402605:	6c 65 20 
  402608:	48 89 43 30          	mov    %rax,0x30(%rbx)
  40260c:	48 b8 63 68 61 72 61 	movabs $0x6574636172616863,%rax
  402613:	63 74 65 
  402616:	48 89 43 38          	mov    %rax,0x38(%rbx)
  40261a:	66 c7 43 40 72 2e    	movw   $0x2e72,0x40(%rbx)
  402620:	c6 43 42 00          	movb   $0x0,0x42(%rbx)
  402624:	89 ef                	mov    %ebp,%edi
  402626:	e8 65 e6 ff ff       	callq  400c90 <close@plt>
  40262b:	b8 ff ff ff ff       	mov    $0xffffffff,%eax
  402630:	e9 5c 01 00 00       	jmpq   402791 <submitr+0x587>
  402635:	48 b8 45 72 72 6f 72 	movabs $0x43203a726f727245,%rax
  40263c:	3a 20 43 
  40263f:	48 89 03             	mov    %rax,(%rbx)
  402642:	48 b8 6c 69 65 6e 74 	movabs $0x6e7520746e65696c,%rax
  402649:	20 75 6e 
  40264c:	48 89 43 08          	mov    %rax,0x8(%rbx)
  402650:	48 b8 61 62 6c 65 20 	movabs $0x206f7420656c6261,%rax
  402657:	74 6f 20 
  40265a:	48 89 43 10          	mov    %rax,0x10(%rbx)
  40265e:	48 b8 77 72 69 74 65 	movabs $0x6f74206574697277,%rax
  402665:	20 74 6f 
  402668:	48 89 43 18          	mov    %rax,0x18(%rbx)
  40266c:	48 b8 20 74 68 65 20 	movabs $0x7365722065687420,%rax
  402673:	72 65 73 
  402676:	48 89 43 20          	mov    %rax,0x20(%rbx)
  40267a:	48 b8 75 6c 74 20 73 	movabs $0x7672657320746c75,%rax
  402681:	65 72 76 
  402684:	48 89 43 28          	mov    %rax,0x28(%rbx)
  402688:	66 c7 43 30 65 72    	movw   $0x7265,0x30(%rbx)
  40268e:	c6 43 32 00          	movb   $0x0,0x32(%rbx)
  402692:	89 ef                	mov    %ebp,%edi
  402694:	e8 f7 e5 ff ff       	callq  400c90 <close@plt>
  402699:	b8 ff ff ff ff       	mov    $0xffffffff,%eax
  40269e:	e9 ee 00 00 00       	jmpq   402791 <submitr+0x587>
  4026a3:	48 b8 45 72 72 6f 72 	movabs $0x43203a726f727245,%rax
  4026aa:	3a 20 43 
  4026ad:	48 89 03             	mov    %rax,(%rbx)
  4026b0:	48 b8 6c 69 65 6e 74 	movabs $0x6e7520746e65696c,%rax
  4026b7:	20 75 6e 
  4026ba:	48 89 43 08          	mov    %rax,0x8(%rbx)
  4026be:	48 b8 61 62 6c 65 20 	movabs $0x206f7420656c6261,%rax
  4026c5:	74 6f 20 
  4026c8:	48 89 43 10          	mov    %rax,0x10(%rbx)
  4026cc:	48 b8 72 65 61 64 20 	movabs $0x7269662064616572,%rax
  4026d3:	66 69 72 
  4026d6:	48 89 43 18          	mov    %rax,0x18(%rbx)
  4026da:	48 b8 73 74 20 68 65 	movabs $0x6564616568207473,%rax
  4026e1:	61 64 65 
  4026e4:	48 89 43 20          	mov    %rax,0x20(%rbx)
  4026e8:	48 b8 72 20 66 72 6f 	movabs $0x72206d6f72662072,%rax
  4026ef:	6d 20 72 
  4026f2:	48 89 43 28          	mov    %rax,0x28(%rbx)
  4026f6:	48 b8 65 73 75 6c 74 	movabs $0x657320746c757365,%rax
  4026fd:	20 73 65 
  402700:	48 89 43 30          	mov    %rax,0x30(%rbx)
  402704:	c7 43 38 72 76 65 72 	movl   $0x72657672,0x38(%rbx)
  40270b:	c6 43 3c 00          	movb   $0x0,0x3c(%rbx)
  40270f:	89 ef                	mov    %ebp,%edi
  402711:	e8 7a e5 ff ff       	callq  400c90 <close@plt>
  402716:	b8 ff ff ff ff       	mov    $0xffffffff,%eax
  40271b:	eb 74                	jmp    402791 <submitr+0x587>
  40271d:	48 b8 45 72 72 6f 72 	movabs $0x43203a726f727245,%rax
  402724:	3a 20 43 
  402727:	48 89 03             	mov    %rax,(%rbx)
  40272a:	48 b8 6c 69 65 6e 74 	movabs $0x6e7520746e65696c,%rax
  402731:	20 75 6e 
  402734:	48 89 43 08          	mov    %rax,0x8(%rbx)
  402738:	48 b8 61 62 6c 65 20 	movabs $0x206f7420656c6261,%rax
  40273f:	74 6f 20 
  402742:	48 89 43 10          	mov    %rax,0x10(%rbx)
  402746:	48 b8 72 65 61 64 20 	movabs $0x6165682064616572,%rax
  40274d:	68 65 61 
  402750:	48 89 43 18          	mov    %rax,0x18(%rbx)
  402754:	48 b8 64 65 72 73 20 	movabs $0x6f72662073726564,%rax
  40275b:	66 72 6f 
  40275e:	48 89 43 20          	mov    %rax,0x20(%rbx)
  402762:	48 b8 6d 20 74 68 65 	movabs $0x657220656874206d,%rax
  402769:	20 72 65 
  40276c:	48 89 43 28          	mov    %rax,0x28(%rbx)
  402770:	48 b8 73 75 6c 74 20 	movabs $0x72657320746c7573,%rax
  402777:	73 65 72 
  40277a:	48 89 43 30          	mov    %rax,0x30(%rbx)
  40277e:	c7 43 38 76 65 72 00 	movl   $0x726576,0x38(%rbx)
  402785:	89 ef                	mov    %ebp,%edi
  402787:	e8 04 e5 ff ff       	callq  400c90 <close@plt>
  40278c:	b8 ff ff ff ff       	mov    $0xffffffff,%eax
  402791:	48 81 c4 58 a0 00 00 	add    $0xa058,%rsp
  402798:	5b                   	pop    %rbx
  402799:	5d                   	pop    %rbp
  40279a:	41 5c                	pop    %r12
  40279c:	41 5d                	pop    %r13
  40279e:	41 5e                	pop    %r14
  4027a0:	41 5f                	pop    %r15
  4027a2:	c3                   	retq   
  4027a3:	85 c0                	test   %eax,%eax
  4027a5:	74 51                	je     4027f8 <submitr+0x5ee>
  4027a7:	48 8d b4 24 30 60 00 	lea    0x6030(%rsp),%rsi
  4027ae:	00 
  4027af:	48 8d bc 24 30 80 00 	lea    0x8030(%rsp),%rdi
  4027b6:	00 
  4027b7:	ba 00 20 00 00       	mov    $0x2000,%edx
  4027bc:	e8 ca f9 ff ff       	callq  40218b <rio_readlineb>
  4027c1:	48 85 c0             	test   %rax,%rax
  4027c4:	0f 8e 53 ff ff ff    	jle    40271d <submitr+0x513>
  4027ca:	0f b6 94 24 30 60 00 	movzbl 0x6030(%rsp),%edx
  4027d1:	00 
  4027d2:	b8 0d 00 00 00       	mov    $0xd,%eax
  4027d7:	29 d0                	sub    %edx,%eax
  4027d9:	75 c8                	jne    4027a3 <submitr+0x599>
  4027db:	0f b6 94 24 31 60 00 	movzbl 0x6031(%rsp),%edx
  4027e2:	00 
  4027e3:	b8 0a 00 00 00       	mov    $0xa,%eax
  4027e8:	29 d0                	sub    %edx,%eax
  4027ea:	75 b7                	jne    4027a3 <submitr+0x599>
  4027ec:	0f b6 84 24 32 60 00 	movzbl 0x6032(%rsp),%eax
  4027f3:	00 
  4027f4:	f7 d8                	neg    %eax
  4027f6:	eb ab                	jmp    4027a3 <submitr+0x599>
  4027f8:	48 8d b4 24 30 60 00 	lea    0x6030(%rsp),%rsi
  4027ff:	00 
  402800:	48 8d bc 24 30 80 00 	lea    0x8030(%rsp),%rdi
  402807:	00 
  402808:	ba 00 20 00 00       	mov    $0x2000,%edx
  40280d:	e8 79 f9 ff ff       	callq  40218b <rio_readlineb>
  402812:	48 85 c0             	test   %rax,%rax
  402815:	7e 67                	jle    40287e <submitr+0x674>
  402817:	8b 94 24 2c 20 00 00 	mov    0x202c(%rsp),%edx
  40281e:	81 fa c8 00 00 00    	cmp    $0xc8,%edx
  402824:	0f 85 d7 00 00 00    	jne    402901 <submitr+0x6f7>
  40282a:	48 8d b4 24 30 60 00 	lea    0x6030(%rsp),%rsi
  402831:	00 
  402832:	48 89 df             	mov    %rbx,%rdi
  402835:	e8 e6 e3 ff ff       	callq  400c20 <strcpy@plt>
  40283a:	89 ef                	mov    %ebp,%edi
  40283c:	e8 4f e4 ff ff       	callq  400c90 <close@plt>
  402841:	0f b6 03             	movzbl (%rbx),%eax
  402844:	ba 4f 00 00 00       	mov    $0x4f,%edx
  402849:	29 c2                	sub    %eax,%edx
  40284b:	0f 85 da 00 00 00    	jne    40292b <submitr+0x721>
  402851:	0f b6 4b 01          	movzbl 0x1(%rbx),%ecx
  402855:	b8 4b 00 00 00       	mov    $0x4b,%eax
  40285a:	29 c8                	sub    %ecx,%eax
  40285c:	0f 85 cb 00 00 00    	jne    40292d <submitr+0x723>
  402862:	0f b6 4b 02          	movzbl 0x2(%rbx),%ecx
  402866:	b8 0a 00 00 00       	mov    $0xa,%eax
  40286b:	29 c8                	sub    %ecx,%eax
  40286d:	0f 85 ba 00 00 00    	jne    40292d <submitr+0x723>
  402873:	0f b6 43 03          	movzbl 0x3(%rbx),%eax
  402877:	f7 d8                	neg    %eax
  402879:	e9 af 00 00 00       	jmpq   40292d <submitr+0x723>
  40287e:	48 b8 45 72 72 6f 72 	movabs $0x43203a726f727245,%rax
  402885:	3a 20 43 
  402888:	48 89 03             	mov    %rax,(%rbx)
  40288b:	48 b8 6c 69 65 6e 74 	movabs $0x6e7520746e65696c,%rax
  402892:	20 75 6e 
  402895:	48 89 43 08          	mov    %rax,0x8(%rbx)
  402899:	48 b8 61 62 6c 65 20 	movabs $0x206f7420656c6261,%rax
  4028a0:	74 6f 20 
  4028a3:	48 89 43 10          	mov    %rax,0x10(%rbx)
  4028a7:	48 b8 72 65 61 64 20 	movabs $0x6174732064616572,%rax
  4028ae:	73 74 61 
  4028b1:	48 89 43 18          	mov    %rax,0x18(%rbx)
  4028b5:	48 b8 74 75 73 20 6d 	movabs $0x7373656d20737574,%rax
  4028bc:	65 73 73 
  4028bf:	48 89 43 20          	mov    %rax,0x20(%rbx)
  4028c3:	48 b8 61 67 65 20 66 	movabs $0x6d6f726620656761,%rax
  4028ca:	72 6f 6d 
  4028cd:	48 89 43 28          	mov    %rax,0x28(%rbx)
  4028d1:	48 b8 20 72 65 73 75 	movabs $0x20746c7573657220,%rax
  4028d8:	6c 74 20 
  4028db:	48 89 43 30          	mov    %rax,0x30(%rbx)
  4028df:	c7 43 38 73 65 72 76 	movl   $0x76726573,0x38(%rbx)
  4028e6:	66 c7 43 3c 65 72    	movw   $0x7265,0x3c(%rbx)
  4028ec:	c6 43 3e 00          	movb   $0x0,0x3e(%rbx)
  4028f0:	89 ef                	mov    %ebp,%edi
  4028f2:	e8 99 e3 ff ff       	callq  400c90 <close@plt>
  4028f7:	b8 ff ff ff ff       	mov    $0xffffffff,%eax
  4028fc:	e9 90 fe ff ff       	jmpq   402791 <submitr+0x587>
  402901:	48 8d 4c 24 20       	lea    0x20(%rsp),%rcx
  402906:	48 8d 35 eb 0a 00 00 	lea    0xaeb(%rip),%rsi        # 4033f8 <trans_char+0x78>
  40290d:	48 89 df             	mov    %rbx,%rdi
  402910:	b8 00 00 00 00       	mov    $0x0,%eax
  402915:	e8 86 e4 ff ff       	callq  400da0 <sprintf@plt>
  40291a:	89 ef                	mov    %ebp,%edi
  40291c:	e8 6f e3 ff ff       	callq  400c90 <close@plt>
  402921:	b8 ff ff ff ff       	mov    $0xffffffff,%eax
  402926:	e9 66 fe ff ff       	jmpq   402791 <submitr+0x587>
  40292b:	89 d0                	mov    %edx,%eax
  40292d:	f7 d8                	neg    %eax
  40292f:	0f 84 5c fe ff ff    	je     402791 <submitr+0x587>
  402935:	b9 05 00 00 00       	mov    $0x5,%ecx
  40293a:	48 8d 3d ff 0a 00 00 	lea    0xaff(%rip),%rdi        # 403440 <trans_char+0xc0>
  402941:	48 89 de             	mov    %rbx,%rsi
  402944:	f3 a6                	repz cmpsb %es:(%rdi),%ds:(%rsi)
  402946:	0f 97 c0             	seta   %al
  402949:	0f 92 c1             	setb   %cl
  40294c:	29 c8                	sub    %ecx,%eax
  40294e:	0f be c0             	movsbl %al,%eax
  402951:	85 c0                	test   %eax,%eax
  402953:	0f 84 38 fe ff ff    	je     402791 <submitr+0x587>
  402959:	85 d2                	test   %edx,%edx
  40295b:	75 13                	jne    402970 <submitr+0x766>
  40295d:	0f b6 43 01          	movzbl 0x1(%rbx),%eax
  402961:	ba 4b 00 00 00       	mov    $0x4b,%edx
  402966:	29 c2                	sub    %eax,%edx
  402968:	75 06                	jne    402970 <submitr+0x766>
  40296a:	0f b6 53 02          	movzbl 0x2(%rbx),%edx
  40296e:	f7 da                	neg    %edx
  402970:	89 d0                	mov    %edx,%eax
  402972:	f7 d8                	neg    %eax
  402974:	0f 84 17 fe ff ff    	je     402791 <submitr+0x587>
  40297a:	b8 ff ff ff ff       	mov    $0xffffffff,%eax
  40297f:	e9 0d fe ff ff       	jmpq   402791 <submitr+0x587>

0000000000402984 <init_timeout>:
  402984:	85 ff                	test   %edi,%edi
  402986:	74 20                	je     4029a8 <init_timeout+0x24>
  402988:	53                   	push   %rbx
  402989:	89 fb                	mov    %edi,%ebx
  40298b:	85 ff                	test   %edi,%edi
  40298d:	78 1b                	js     4029aa <init_timeout+0x26>
  40298f:	48 8d 35 05 f6 ff ff 	lea    -0x9fb(%rip),%rsi        # 401f9b <sigalrm_handler>
  402996:	bf 0e 00 00 00       	mov    $0xe,%edi
  40299b:	e8 10 e3 ff ff       	callq  400cb0 <signal@plt>
  4029a0:	89 df                	mov    %ebx,%edi
  4029a2:	e8 d9 e2 ff ff       	callq  400c80 <alarm@plt>
  4029a7:	5b                   	pop    %rbx
  4029a8:	f3 c3                	repz retq 
  4029aa:	bb 00 00 00 00       	mov    $0x0,%ebx
  4029af:	eb de                	jmp    40298f <init_timeout+0xb>

00000000004029b1 <init_driver>:
  4029b1:	41 54                	push   %r12
  4029b3:	55                   	push   %rbp
  4029b4:	53                   	push   %rbx
  4029b5:	48 83 ec 10          	sub    $0x10,%rsp
  4029b9:	48 89 fd             	mov    %rdi,%rbp
  4029bc:	be 01 00 00 00       	mov    $0x1,%esi
  4029c1:	bf 0d 00 00 00       	mov    $0xd,%edi
  4029c6:	e8 e5 e2 ff ff       	callq  400cb0 <signal@plt>
  4029cb:	be 01 00 00 00       	mov    $0x1,%esi
  4029d0:	bf 1d 00 00 00       	mov    $0x1d,%edi
  4029d5:	e8 d6 e2 ff ff       	callq  400cb0 <signal@plt>
  4029da:	be 01 00 00 00       	mov    $0x1,%esi
  4029df:	bf 1d 00 00 00       	mov    $0x1d,%edi
  4029e4:	e8 c7 e2 ff ff       	callq  400cb0 <signal@plt>
  4029e9:	ba 00 00 00 00       	mov    $0x0,%edx
  4029ee:	be 01 00 00 00       	mov    $0x1,%esi
  4029f3:	bf 02 00 00 00       	mov    $0x2,%edi
  4029f8:	e8 d3 e3 ff ff       	callq  400dd0 <socket@plt>
  4029fd:	85 c0                	test   %eax,%eax
  4029ff:	0f 88 80 00 00 00    	js     402a85 <init_driver+0xd4>
  402a05:	89 c3                	mov    %eax,%ebx
  402a07:	48 8d 3d 37 0a 00 00 	lea    0xa37(%rip),%rdi        # 403445 <trans_char+0xc5>
  402a0e:	e8 ad e2 ff ff       	callq  400cc0 <gethostbyname@plt>
  402a13:	48 85 c0             	test   %rax,%rax
  402a16:	0f 84 b5 00 00 00    	je     402ad1 <init_driver+0x120>
  402a1c:	48 c7 04 24 00 00 00 	movq   $0x0,(%rsp)
  402a23:	00 
  402a24:	48 c7 44 24 08 00 00 	movq   $0x0,0x8(%rsp)
  402a2b:	00 00 
  402a2d:	66 c7 04 24 02 00    	movw   $0x2,(%rsp)
  402a33:	48 8b 48 18          	mov    0x18(%rax),%rcx
  402a37:	48 63 50 14          	movslq 0x14(%rax),%rdx
  402a3b:	48 8d 74 24 04       	lea    0x4(%rsp),%rsi
  402a40:	48 8b 39             	mov    (%rcx),%rdi
  402a43:	e8 08 e3 ff ff       	callq  400d50 <bcopy@plt>
  402a48:	66 c7 44 24 02 3c a4 	movw   $0xa43c,0x2(%rsp)
  402a4f:	ba 10 00 00 00       	mov    $0x10,%edx
  402a54:	48 89 e6             	mov    %rsp,%rsi
  402a57:	89 df                	mov    %ebx,%edi
  402a59:	e8 62 e3 ff ff       	callq  400dc0 <connect@plt>
  402a5e:	85 c0                	test   %eax,%eax
  402a60:	0f 88 d3 00 00 00    	js     402b39 <init_driver+0x188>
  402a66:	89 df                	mov    %ebx,%edi
  402a68:	e8 23 e2 ff ff       	callq  400c90 <close@plt>
  402a6d:	66 c7 45 00 4f 4b    	movw   $0x4b4f,0x0(%rbp)
  402a73:	c6 45 02 00          	movb   $0x0,0x2(%rbp)
  402a77:	b8 00 00 00 00       	mov    $0x0,%eax
  402a7c:	48 83 c4 10          	add    $0x10,%rsp
  402a80:	5b                   	pop    %rbx
  402a81:	5d                   	pop    %rbp
  402a82:	41 5c                	pop    %r12
  402a84:	c3                   	retq   
  402a85:	48 b8 45 72 72 6f 72 	movabs $0x43203a726f727245,%rax
  402a8c:	3a 20 43 
  402a8f:	48 89 45 00          	mov    %rax,0x0(%rbp)
  402a93:	48 b8 6c 69 65 6e 74 	movabs $0x6e7520746e65696c,%rax
  402a9a:	20 75 6e 
  402a9d:	48 89 45 08          	mov    %rax,0x8(%rbp)
  402aa1:	48 b8 61 62 6c 65 20 	movabs $0x206f7420656c6261,%rax
  402aa8:	74 6f 20 
  402aab:	48 89 45 10          	mov    %rax,0x10(%rbp)
  402aaf:	48 b8 63 72 65 61 74 	movabs $0x7320657461657263,%rax
  402ab6:	65 20 73 
  402ab9:	48 89 45 18          	mov    %rax,0x18(%rbp)
  402abd:	c7 45 20 6f 63 6b 65 	movl   $0x656b636f,0x20(%rbp)
  402ac4:	66 c7 45 24 74 00    	movw   $0x74,0x24(%rbp)
  402aca:	b8 ff ff ff ff       	mov    $0xffffffff,%eax
  402acf:	eb ab                	jmp    402a7c <init_driver+0xcb>
  402ad1:	48 b8 45 72 72 6f 72 	movabs $0x44203a726f727245,%rax
  402ad8:	3a 20 44 
  402adb:	48 89 45 00          	mov    %rax,0x0(%rbp)
  402adf:	48 b8 4e 53 20 69 73 	movabs $0x6e7520736920534e,%rax
  402ae6:	20 75 6e 
  402ae9:	48 89 45 08          	mov    %rax,0x8(%rbp)
  402aed:	48 b8 61 62 6c 65 20 	movabs $0x206f7420656c6261,%rax
  402af4:	74 6f 20 
  402af7:	48 89 45 10          	mov    %rax,0x10(%rbp)
  402afb:	48 b8 72 65 73 6f 6c 	movabs $0x2065766c6f736572,%rax
  402b02:	76 65 20 
  402b05:	48 89 45 18          	mov    %rax,0x18(%rbp)
  402b09:	48 b8 73 65 72 76 65 	movabs $0x6120726576726573,%rax
  402b10:	72 20 61 
  402b13:	48 89 45 20          	mov    %rax,0x20(%rbp)
  402b17:	c7 45 28 64 64 72 65 	movl   $0x65726464,0x28(%rbp)
  402b1e:	66 c7 45 2c 73 73    	movw   $0x7373,0x2c(%rbp)
  402b24:	c6 45 2e 00          	movb   $0x0,0x2e(%rbp)
  402b28:	89 df                	mov    %ebx,%edi
  402b2a:	e8 61 e1 ff ff       	callq  400c90 <close@plt>
  402b2f:	b8 ff ff ff ff       	mov    $0xffffffff,%eax
  402b34:	e9 43 ff ff ff       	jmpq   402a7c <init_driver+0xcb>
  402b39:	48 b8 45 72 72 6f 72 	movabs $0x55203a726f727245,%rax
  402b40:	3a 20 55 
  402b43:	48 89 45 00          	mov    %rax,0x0(%rbp)
  402b47:	48 b8 6e 61 62 6c 65 	movabs $0x6f7420656c62616e,%rax
  402b4e:	20 74 6f 
  402b51:	48 89 45 08          	mov    %rax,0x8(%rbp)
  402b55:	48 b8 20 63 6f 6e 6e 	movabs $0x7463656e6e6f6320,%rax
  402b5c:	65 63 74 
  402b5f:	48 89 45 10          	mov    %rax,0x10(%rbp)
  402b63:	48 b8 20 74 6f 20 73 	movabs $0x76726573206f7420,%rax
  402b6a:	65 72 76 
  402b6d:	48 89 45 18          	mov    %rax,0x18(%rbp)
  402b71:	66 c7 45 20 65 72    	movw   $0x7265,0x20(%rbp)
  402b77:	c6 45 22 00          	movb   $0x0,0x22(%rbp)
  402b7b:	89 df                	mov    %ebx,%edi
  402b7d:	e8 0e e1 ff ff       	callq  400c90 <close@plt>
  402b82:	b8 ff ff ff ff       	mov    $0xffffffff,%eax
  402b87:	e9 f0 fe ff ff       	jmpq   402a7c <init_driver+0xcb>

0000000000402b8c <driver_post>:
  402b8c:	53                   	push   %rbx
  402b8d:	4c 89 cb             	mov    %r9,%rbx
  402b90:	45 85 c0             	test   %r8d,%r8d
  402b93:	75 18                	jne    402bad <driver_post+0x21>
  402b95:	48 85 ff             	test   %rdi,%rdi
  402b98:	74 05                	je     402b9f <driver_post+0x13>
  402b9a:	80 3f 00             	cmpb   $0x0,(%rdi)
  402b9d:	75 32                	jne    402bd1 <driver_post+0x45>
  402b9f:	66 c7 03 4f 4b       	movw   $0x4b4f,(%rbx)
  402ba4:	c6 43 02 00          	movb   $0x0,0x2(%rbx)
  402ba8:	44 89 c0             	mov    %r8d,%eax
  402bab:	5b                   	pop    %rbx
  402bac:	c3                   	retq   
  402bad:	48 89 ce             	mov    %rcx,%rsi
  402bb0:	48 8d 3d 9c 08 00 00 	lea    0x89c(%rip),%rdi        # 403453 <trans_char+0xd3>
  402bb7:	b8 00 00 00 00       	mov    $0x0,%eax
  402bbc:	e8 9f e0 ff ff       	callq  400c60 <printf@plt>
  402bc1:	66 c7 03 4f 4b       	movw   $0x4b4f,(%rbx)
  402bc6:	c6 43 02 00          	movb   $0x0,0x2(%rbx)
  402bca:	b8 00 00 00 00       	mov    $0x0,%eax
  402bcf:	eb da                	jmp    402bab <driver_post+0x1f>
  402bd1:	48 83 ec 08          	sub    $0x8,%rsp
  402bd5:	41 51                	push   %r9
  402bd7:	49 89 c9             	mov    %rcx,%r9
  402bda:	49 89 d0             	mov    %rdx,%r8
  402bdd:	48 89 f9             	mov    %rdi,%rcx
  402be0:	48 89 f2             	mov    %rsi,%rdx
  402be3:	be a4 3c 00 00       	mov    $0x3ca4,%esi
  402be8:	48 8d 3d 56 08 00 00 	lea    0x856(%rip),%rdi        # 403445 <trans_char+0xc5>
  402bef:	e8 16 f6 ff ff       	callq  40220a <submitr>
  402bf4:	48 83 c4 10          	add    $0x10,%rsp
  402bf8:	eb b1                	jmp    402bab <driver_post+0x1f>

0000000000402bfa <check>:
  402bfa:	89 f8                	mov    %edi,%eax
  402bfc:	c1 e8 1c             	shr    $0x1c,%eax
  402bff:	85 c0                	test   %eax,%eax
  402c01:	74 1d                	je     402c20 <check+0x26>
  402c03:	b9 00 00 00 00       	mov    $0x0,%ecx
  402c08:	83 f9 1f             	cmp    $0x1f,%ecx
  402c0b:	7f 0d                	jg     402c1a <check+0x20>
  402c0d:	89 f8                	mov    %edi,%eax
  402c0f:	d3 e8                	shr    %cl,%eax
  402c11:	3c 0a                	cmp    $0xa,%al
  402c13:	74 11                	je     402c26 <check+0x2c>
  402c15:	83 c1 08             	add    $0x8,%ecx
  402c18:	eb ee                	jmp    402c08 <check+0xe>
  402c1a:	b8 01 00 00 00       	mov    $0x1,%eax
  402c1f:	c3                   	retq   
  402c20:	b8 00 00 00 00       	mov    $0x0,%eax
  402c25:	c3                   	retq   
  402c26:	b8 00 00 00 00       	mov    $0x0,%eax
  402c2b:	c3                   	retq   

0000000000402c2c <gencookie>:
  402c2c:	53                   	push   %rbx
  402c2d:	83 c7 01             	add    $0x1,%edi
  402c30:	e8 cb df ff ff       	callq  400c00 <srandom@plt>
  402c35:	e8 d6 e0 ff ff       	callq  400d10 <random@plt>
  402c3a:	89 c3                	mov    %eax,%ebx
  402c3c:	89 c7                	mov    %eax,%edi
  402c3e:	e8 b7 ff ff ff       	callq  402bfa <check>
  402c43:	85 c0                	test   %eax,%eax
  402c45:	74 ee                	je     402c35 <gencookie+0x9>
  402c47:	89 d8                	mov    %ebx,%eax
  402c49:	5b                   	pop    %rbx
  402c4a:	c3                   	retq   
  402c4b:	0f 1f 44 00 00       	nopl   0x0(%rax,%rax,1)

0000000000402c50 <__libc_csu_init>:
  402c50:	41 57                	push   %r15
  402c52:	41 56                	push   %r14
  402c54:	41 89 ff             	mov    %edi,%r15d
  402c57:	41 55                	push   %r13
  402c59:	41 54                	push   %r12
  402c5b:	4c 8d 25 a6 21 20 00 	lea    0x2021a6(%rip),%r12        # 604e08 <__frame_dummy_init_array_entry>
  402c62:	55                   	push   %rbp
  402c63:	48 8d 2d a6 21 20 00 	lea    0x2021a6(%rip),%rbp        # 604e10 <__init_array_end>
  402c6a:	53                   	push   %rbx
  402c6b:	49 89 f6             	mov    %rsi,%r14
  402c6e:	49 89 d5             	mov    %rdx,%r13
  402c71:	4c 29 e5             	sub    %r12,%rbp
  402c74:	48 83 ec 08          	sub    $0x8,%rsp
  402c78:	48 c1 fd 03          	sar    $0x3,%rbp
  402c7c:	e8 2f df ff ff       	callq  400bb0 <_init>
  402c81:	48 85 ed             	test   %rbp,%rbp
  402c84:	74 20                	je     402ca6 <__libc_csu_init+0x56>
  402c86:	31 db                	xor    %ebx,%ebx
  402c88:	0f 1f 84 00 00 00 00 	nopl   0x0(%rax,%rax,1)
  402c8f:	00 
  402c90:	4c 89 ea             	mov    %r13,%rdx
  402c93:	4c 89 f6             	mov    %r14,%rsi
  402c96:	44 89 ff             	mov    %r15d,%edi
  402c99:	41 ff 14 dc          	callq  *(%r12,%rbx,8)
  402c9d:	48 83 c3 01          	add    $0x1,%rbx
  402ca1:	48 39 dd             	cmp    %rbx,%rbp
  402ca4:	75 ea                	jne    402c90 <__libc_csu_init+0x40>
  402ca6:	48 83 c4 08          	add    $0x8,%rsp
  402caa:	5b                   	pop    %rbx
  402cab:	5d                   	pop    %rbp
  402cac:	41 5c                	pop    %r12
  402cae:	41 5d                	pop    %r13
  402cb0:	41 5e                	pop    %r14
  402cb2:	41 5f                	pop    %r15
  402cb4:	c3                   	retq   
  402cb5:	90                   	nop
  402cb6:	66 2e 0f 1f 84 00 00 	nopw   %cs:0x0(%rax,%rax,1)
  402cbd:	00 00 00 

0000000000402cc0 <__libc_csu_fini>:
  402cc0:	f3 c3                	repz retq 

Disassembly of section .fini:

0000000000402cc4 <_fini>:
  402cc4:	48 83 ec 08          	sub    $0x8,%rsp
  402cc8:	48 83 c4 08          	add    $0x8,%rsp
  402ccc:	c3                   	retq   
